---
triple:          'arm64-apple-darwin'
binary-path:     '/Users/ijaehun/Documents/PS/PS/output/3197'
relocations:
  - { offsetInCU: 0x3F, offset: 0x3F, size: 0x8, addend: 0x0, symName: _R, symObjAddr: 0x368F8, symBinAddr: 0x10000C020, symSize: 0x0 }
  - { offsetInCU: 0x5B, offset: 0x5B, size: 0x8, addend: 0x0, symName: _C, symObjAddr: 0x368FC, symBinAddr: 0x10000C024, symSize: 0x0 }
  - { offsetInCU: 0x70, offset: 0x70, size: 0x8, addend: 0x0, symName: _check, symObjAddr: 0x36900, symBinAddr: 0x10000C028, symSize: 0x0 }
  - { offsetInCU: 0x85, offset: 0x85, size: 0x8, addend: 0x0, symName: _board, symObjAddr: 0x36908, symBinAddr: 0x10000C030, symSize: 0x0 }
  - { offsetInCU: 0x6A11, offset: 0x6A11, size: 0x8, addend: 0x0, symName: __ZNSt3__1rsB8ue170006IcNS_11char_traitsIcEENS_9allocatorIcEEEERNS_13basic_istreamIT_T0_EES9_RNS_12basic_stringIS6_S7_T1_EE, symObjAddr: 0x804, symBinAddr: 0x100001EC8, symSize: 0x324 }
  - { offsetInCU: 0x6AE0, offset: 0x6AE0, size: 0x8, addend: 0x0, symName: __ZNSt3__19make_pairB8ue170006IRiS1_EENS_4pairINS_18__unwrap_ref_decayIT_E4typeENS3_IT0_E4typeEEEOS4_OS7_, symObjAddr: 0xB84, symBinAddr: 0x100002248, symSize: 0x34 }
  - { offsetInCU: 0x6B2F, offset: 0x6B2F, size: 0x8, addend: 0x0, symName: __ZNSt3__1neB8ue170006ERKNS_16__deque_iteratorINS_4pairIiiEEPS2_RS2_PS3_lLl512EEES8_, symObjAddr: 0x11F4, symBinAddr: 0x1000028B8, symSize: 0x34 }
  - { offsetInCU: 0x6B6C, offset: 0x6B6C, size: 0x8, addend: 0x0, symName: __ZNSt3__1eqB8ue170006ERKNS_16__deque_iteratorINS_4pairIiiEEPS2_RS2_PS3_lLl512EEES8_, symObjAddr: 0x1540, symBinAddr: 0x100002C04, symSize: 0x30 }
  - { offsetInCU: 0x6BA9, offset: 0x6BA9, size: 0x8, addend: 0x0, symName: __ZNSt3__112__to_addressB8ue170006INS_4pairIiiEEEEPT_S4_, symObjAddr: 0x1BD0, symBinAddr: 0x100003294, symSize: 0x14 }
  - { offsetInCU: 0x6BDE, offset: 0x6BDE, size: 0x8, addend: 0x0, symName: __ZNSt3__130__libcpp_is_constant_evaluatedB8ue170006Ev, symObjAddr: 0x1D6C, symBinAddr: 0x100003430, symSize: 0xC }
  - { offsetInCU: 0x6BFB, offset: 0x6BFB, size: 0x8, addend: 0x0, symName: __ZNSt3__119__libcpp_deallocateB8ue170006EPvmm, symObjAddr: 0x1D78, symBinAddr: 0x10000343C, symSize: 0x30 }
  - { offsetInCU: 0x6C43, offset: 0x6C43, size: 0x8, addend: 0x0, symName: __ZNSt3__127__do_deallocate_handle_sizeB8ue170006IJEEEvPvmDpT_, symObjAddr: 0x1DA8, symBinAddr: 0x10000346C, symSize: 0x28 }
  - { offsetInCU: 0x6C81, offset: 0x6C81, size: 0x8, addend: 0x0, symName: __ZNSt3__124__libcpp_operator_deleteB8ue170006IJPvEEEvDpT_, symObjAddr: 0x1DD0, symBinAddr: 0x100003494, symSize: 0x24 }
  - { offsetInCU: 0x6CB6, offset: 0x6CB6, size: 0x8, addend: 0x0, symName: __ZNSt3__112__to_addressB8ue170006IPNS_4pairIiiEEEEPT_S5_, symObjAddr: 0x205C, symBinAddr: 0x100003720, symSize: 0x14 }
  - { offsetInCU: 0x6CEB, offset: 0x6CEB, size: 0x8, addend: 0x0, symName: __ZNSt3__117__libcpp_allocateB8ue170006Emm, symObjAddr: 0x2680, symBinAddr: 0x100003D44, symSize: 0x28 }
  - { offsetInCU: 0x6D28, offset: 0x6D28, size: 0x8, addend: 0x0, symName: __ZNSt3__121__libcpp_operator_newB8ue170006IJmEEEPvDpT_, symObjAddr: 0x26BC, symBinAddr: 0x100003D80, symSize: 0x24 }
  - { offsetInCU: 0x7B9C, offset: 0x7B9C, size: 0x8, addend: 0x0, symName: __ZNSt3__19use_facetB8ue170006INS_5ctypeIcEEEERKT_RKNS_6localeE, symObjAddr: 0x2BE4, symBinAddr: 0x1000042A8, symSize: 0x2C }
  - { offsetInCU: 0x81AF, offset: 0x81AF, size: 0x8, addend: 0x0, symName: __ZNSt3__13maxB8ue170006ImEERKT_S3_S3_, symObjAddr: 0x3F20, symBinAddr: 0x1000055E4, symSize: 0x2C }
  - { offsetInCU: 0x867B, offset: 0x867B, size: 0x8, addend: 0x0, symName: __ZNSt3__14swapB8ue170006IPPNS_4pairIiiEEEEvRT_S6_, symObjAddr: 0x4550, symBinAddr: 0x100005C14, symSize: 0x3C }
  - { offsetInCU: 0x86CC, offset: 0x86CC, size: 0x8, addend: 0x0, symName: __ZNSt3__14moveB8ue170006IPPNS_4pairIiiEES4_EET0_T_S6_S5_, symObjAddr: 0x4634, symBinAddr: 0x100005CF8, symSize: 0x40 }
  - { offsetInCU: 0x8742, offset: 0x8742, size: 0x8, addend: 0x0, symName: __ZNSt3__16__moveB8ue170006INS_17_ClassicAlgPolicyEPPNS_4pairIiiEES5_S5_EENS2_IT0_T2_EES6_T1_S7_, symObjAddr: 0x473C, symBinAddr: 0x100005E00, symSize: 0x44 }
  - { offsetInCU: 0x87AE, offset: 0x87AE, size: 0x8, addend: 0x0, symName: __ZNSt3__123__dispatch_copy_or_moveB8ue170006INS_17_ClassicAlgPolicyENS_11__move_loopIS1_EENS_14__move_trivialEPPNS_4pairIiiEES8_S8_EENS5_IT2_T4_EES9_T3_SA_, symObjAddr: 0x4780, symBinAddr: 0x100005E44, symSize: 0x44 }
  - { offsetInCU: 0x882C, offset: 0x882C, size: 0x8, addend: 0x0, symName: __ZNSt3__121__unwrap_and_dispatchB8ue170006INS_10__overloadINS_11__move_loopINS_17_ClassicAlgPolicyEEENS_14__move_trivialEEEPPNS_4pairIiiEESA_SA_Li0EEENS7_IT0_T2_EESB_T1_SC_, symObjAddr: 0x47C4, symBinAddr: 0x100005E88, symSize: 0xB4 }
  - { offsetInCU: 0x88BA, offset: 0x88BA, size: 0x8, addend: 0x0, symName: __ZNSt3__114__unwrap_rangeB8ue170006IPPNS_4pairIiiEES4_EENS1_IT0_S5_EET_S7_, symObjAddr: 0x4878, symBinAddr: 0x100005F3C, symSize: 0x60 }
  - { offsetInCU: 0x89F9, offset: 0x89F9, size: 0x8, addend: 0x0, symName: __ZNSt3__113__unwrap_iterB8ue170006IPPNS_4pairIiiEENS_18__unwrap_iter_implIS4_Lb1EEELi0EEEDTclsrT0_8__unwrapclsr3stdE7declvalIT_EEEES8_, symObjAddr: 0x4920, symBinAddr: 0x100005FE4, symSize: 0x24 }
  - { offsetInCU: 0x8A3D, offset: 0x8A3D, size: 0x8, addend: 0x0, symName: __ZNSt3__19make_pairB8ue170006IPPNS_4pairIiiEES4_EENS1_INS_18__unwrap_ref_decayIT_E4typeENS5_IT0_E4typeEEEOS6_OS9_, symObjAddr: 0x4944, symBinAddr: 0x100006008, symSize: 0x38 }
  - { offsetInCU: 0x8A8C, offset: 0x8A8C, size: 0x8, addend: 0x0, symName: __ZNSt3__114__rewrap_rangeB8ue170006IPPNS_4pairIiiEES4_EET_S5_T0_, symObjAddr: 0x497C, symBinAddr: 0x100006040, symSize: 0x2C }
  - { offsetInCU: 0x8AD8, offset: 0x8AD8, size: 0x8, addend: 0x0, symName: __ZNSt3__113__rewrap_iterB8ue170006IPPNS_4pairIiiEES4_NS_18__unwrap_iter_implIS4_Lb1EEEEET_S7_T0_, symObjAddr: 0x49A8, symBinAddr: 0x10000606C, symSize: 0x50 }
  - { offsetInCU: 0x8B2D, offset: 0x8B2D, size: 0x8, addend: 0x0, symName: __ZNSt3__119__copy_trivial_implB8ue170006IPNS_4pairIiiEES3_EENS1_IPT_PT0_EES5_S5_S7_, symObjAddr: 0x49F8, symBinAddr: 0x1000060BC, symSize: 0x80 }
  - { offsetInCU: 0x8B95, offset: 0x8B95, size: 0x8, addend: 0x0, symName: __ZNSt3__119__constexpr_memmoveB8ue170006IPNS_4pairIiiEES3_Li0EEEPT_S5_PT0_NS_15__element_countE, symObjAddr: 0x4A78, symBinAddr: 0x10000613C, symSize: 0xA0 }
  - { offsetInCU: 0x8C03, offset: 0x8C03, size: 0x8, addend: 0x0, symName: __ZNSt3__19make_pairB8ue170006IRPPNS_4pairIiiEES4_EENS1_INS_18__unwrap_ref_decayIT_E4typeENS6_IT0_E4typeEEEOS7_OSA_, symObjAddr: 0x4B18, symBinAddr: 0x1000061DC, symSize: 0x38 }
  - { offsetInCU: 0x8CA5, offset: 0x8CA5, size: 0x8, addend: 0x0, symName: __ZNSt3__18distanceB8ue170006INS_13move_iteratorIPPNS_4pairIiiEEEEEENS_15iterator_traitsIT_E15difference_typeES8_S8_, symObjAddr: 0x4D18, symBinAddr: 0x1000063DC, symSize: 0x3C }
  - { offsetInCU: 0x8CE8, offset: 0x8CE8, size: 0x8, addend: 0x0, symName: __ZNSt3__110__distanceB8ue170006INS_13move_iteratorIPPNS_4pairIiiEEEEEENS_15iterator_traitsIT_E15difference_typeES8_S8_NS_26random_access_iterator_tagE, symObjAddr: 0x4F1C, symBinAddr: 0x1000065E0, symSize: 0x30 }
  - { offsetInCU: 0x8D35, offset: 0x8D35, size: 0x8, addend: 0x0, symName: __ZNSt3__1miB8ue170006IPPNS_4pairIiiEES4_EENS_13move_iteratorIT_E15difference_typeERKS7_RKNS5_IT0_EE, symObjAddr: 0x4F4C, symBinAddr: 0x100006610, symSize: 0x48 }
  - { offsetInCU: 0x8D84, offset: 0x8D84, size: 0x8, addend: 0x0, symName: __ZNSt3__113move_backwardB8ue170006IPPNS_4pairIiiEES4_EET0_T_S6_S5_, symObjAddr: 0x50B0, symBinAddr: 0x100006774, symSize: 0x40 }
  - { offsetInCU: 0x8DDE, offset: 0x8DDE, size: 0x8, addend: 0x0, symName: __ZNSt3__115__move_backwardB8ue170006INS_17_ClassicAlgPolicyEPPNS_4pairIiiEES5_S5_EENS2_IT0_T2_EES6_T1_S7_, symObjAddr: 0x50F0, symBinAddr: 0x1000067B4, symSize: 0x44 }
  - { offsetInCU: 0x8E4A, offset: 0x8E4A, size: 0x8, addend: 0x0, symName: __ZNSt3__123__dispatch_copy_or_moveB8ue170006INS_17_ClassicAlgPolicyENS_20__move_backward_loopIS1_EENS_23__move_backward_trivialEPPNS_4pairIiiEES8_S8_EENS5_IT2_T4_EES9_T3_SA_, symObjAddr: 0x5134, symBinAddr: 0x1000067F8, symSize: 0x44 }
  - { offsetInCU: 0x8EC8, offset: 0x8EC8, size: 0x8, addend: 0x0, symName: __ZNSt3__121__unwrap_and_dispatchB8ue170006INS_10__overloadINS_20__move_backward_loopINS_17_ClassicAlgPolicyEEENS_23__move_backward_trivialEEEPPNS_4pairIiiEESA_SA_Li0EEENS7_IT0_T2_EESB_T1_SC_, symObjAddr: 0x5178, symBinAddr: 0x10000683C, symSize: 0xB4 }
  - { offsetInCU: 0x8F9C, offset: 0x8F9C, size: 0x8, addend: 0x0, symName: __ZNSt3__128__copy_backward_trivial_implB8ue170006IPNS_4pairIiiEES3_EENS1_IPT_PT0_EES5_S5_S7_, symObjAddr: 0x5274, symBinAddr: 0x100006938, symSize: 0x90 }
  - { offsetInCU: 0x9004, offset: 0x9004, size: 0x8, addend: 0x0, symName: __ZNSt3__19make_pairB8ue170006IRPPNS_4pairIiiEES5_EENS1_INS_18__unwrap_ref_decayIT_E4typeENS6_IT0_E4typeEEEOS7_OSA_, symObjAddr: 0x5304, symBinAddr: 0x1000069C8, symSize: 0x38 }
  - { offsetInCU: 0x9053, offset: 0x9053, size: 0x8, addend: 0x0, symName: __ZNSt3__13maxB8ue170006ImNS_6__lessIvvEEEERKT_S5_S5_T0_, symObjAddr: 0x533C, symBinAddr: 0x100006A00, symSize: 0x54 }
  - { offsetInCU: 0x90F2, offset: 0x90F2, size: 0x8, addend: 0x0, symName: __ZNSt3__119__allocate_at_leastB8ue170006INS_9allocatorIPNS_4pairIiiEEEEEENS_19__allocation_resultINS_16allocator_traitsIT_E7pointerEEERS8_m, symObjAddr: 0x54D4, symBinAddr: 0x100006B98, symSize: 0x40 }
  - { offsetInCU: 0x9246, offset: 0x9246, size: 0x8, addend: 0x0, symName: __ZSt28__throw_bad_array_new_lengthB8ue170006v, symObjAddr: 0x264C, symBinAddr: 0x100003D10, symSize: 0x34 }
  - { offsetInCU: 0x9409, offset: 0x9409, size: 0x8, addend: 0x0, symName: _ans, symObjAddr: 0x3F5C0, symBinAddr: 0x100014CE8, symSize: 0x0 }
  - { offsetInCU: 0x941E, offset: 0x941E, size: 0x8, addend: 0x0, symName: _dx, symObjAddr: 0x6404, symBinAddr: 0x10000C000, symSize: 0x0 }
  - { offsetInCU: 0x943F, offset: 0x943F, size: 0x8, addend: 0x0, symName: _dy, symObjAddr: 0x6414, symBinAddr: 0x10000C010, symSize: 0x0 }
  - { offsetInCU: 0x9454, offset: 0x9454, size: 0x8, addend: 0x0, symName: _vis, symObjAddr: 0x3F5C4, symBinAddr: 0x100014CEC, symSize: 0x0 }
  - { offsetInCU: 0x947D, offset: 0x947D, size: 0x8, addend: 0x0, symName: _q, symObjAddr: 0x8D78E8, symBinAddr: 0x1008AD010, symSize: 0x0 }
  - { offsetInCU: 0x96C7, offset: 0x96C7, size: 0x8, addend: 0x0, symName: _q2, symObjAddr: 0x8D7918, symBinAddr: 0x1008AD040, symSize: 0x0 }
  - { offsetInCU: 0x96DC, offset: 0x96DC, size: 0x8, addend: 0x0, symName: _sq, symObjAddr: 0x8D7948, symBinAddr: 0x1008AD070, symSize: 0x0 }
  - { offsetInCU: 0x96F1, offset: 0x96F1, size: 0x8, addend: 0x0, symName: _sq2, symObjAddr: 0x8D7978, symBinAddr: 0x1008AD0A0, symSize: 0x0 }
  - { offsetInCU: 0xBBA6, offset: 0xBBA6, size: 0x8, addend: 0x0, symName: __ZNSt3__112basic_stringIcNS_11char_traitsIcEENS_9allocatorIcEEEC1B8ue170006Ev, symObjAddr: 0x0, symBinAddr: 0x1000016C4, symSize: 0x2C }
  - { offsetInCU: 0xBBD0, offset: 0xBBD0, size: 0x8, addend: 0x0, symName: __ZNSt3__15queueINS_4pairIiiEENS_5dequeIS2_NS_9allocatorIS2_EEEEEC1B8ue170006Ev, symObjAddr: 0x38, symBinAddr: 0x1000016FC, symSize: 0x2C }
  - { offsetInCU: 0xBBFA, offset: 0xBBFA, size: 0x8, addend: 0x0, symName: __ZNSt3__15queueINS_4pairIiiEENS_5dequeIS2_NS_9allocatorIS2_EEEEED1Ev, symObjAddr: 0x64, symBinAddr: 0x100001728, symSize: 0x2C }
  - { offsetInCU: 0xBC27, offset: 0xBC27, size: 0x8, addend: 0x0, symName: _main, symObjAddr: 0x90, symBinAddr: 0x100001754, symSize: 0x774 }
  - { offsetInCU: 0xBD67, offset: 0xBD67, size: 0x8, addend: 0x0, symName: __ZNSt3__112basic_stringIcNS_11char_traitsIcEENS_9allocatorIcEEEixB8ue170006Em, symObjAddr: 0xB28, symBinAddr: 0x1000021EC, symSize: 0x30 }
  - { offsetInCU: 0xBD9C, offset: 0xBD9C, size: 0x8, addend: 0x0, symName: __ZNSt3__15queueINS_4pairIiiEENS_5dequeIS2_NS_9allocatorIS2_EEEEE4pushB8ue170006ERKS2_, symObjAddr: 0xB58, symBinAddr: 0x10000221C, symSize: 0x2C }
  - { offsetInCU: 0xBDD1, offset: 0xBDD1, size: 0x8, addend: 0x0, symName: __ZNKSt3__15queueINS_4pairIiiEENS_5dequeIS2_NS_9allocatorIS2_EEEEE5emptyB8ue170006Ev, symObjAddr: 0xBB8, symBinAddr: 0x10000227C, symSize: 0x28 }
  - { offsetInCU: 0xBDF7, offset: 0xBDF7, size: 0x8, addend: 0x0, symName: __ZNSt3__15queueINS_4pairIiiEENS_5dequeIS2_NS_9allocatorIS2_EEEEE5frontB8ue170006Ev, symObjAddr: 0xBE0, symBinAddr: 0x1000022A4, symSize: 0x24 }
  - { offsetInCU: 0xBE1D, offset: 0xBE1D, size: 0x8, addend: 0x0, symName: __ZNSt3__15queueINS_4pairIiiEENS_5dequeIS2_NS_9allocatorIS2_EEEEE3popB8ue170006Ev, symObjAddr: 0xC04, symBinAddr: 0x1000022C8, symSize: 0x24 }
  - { offsetInCU: 0xBE43, offset: 0xBE43, size: 0x8, addend: 0x0, symName: __ZNSt3__15queueINS_4pairIiiEENS_5dequeIS2_NS_9allocatorIS2_EEEEED2Ev, symObjAddr: 0xC28, symBinAddr: 0x1000022EC, symSize: 0x2C }
  - { offsetInCU: 0xBE70, offset: 0xBE70, size: 0x8, addend: 0x0, symName: __ZNSt3__15dequeINS_4pairIiiEENS_9allocatorIS2_EEED1B8ue170006Ev, symObjAddr: 0xC54, symBinAddr: 0x100002318, symSize: 0x2C }
  - { offsetInCU: 0xBE9A, offset: 0xBE9A, size: 0x8, addend: 0x0, symName: __ZNSt3__15dequeINS_4pairIiiEENS_9allocatorIS2_EEED2B8ue170006Ev, symObjAddr: 0xC80, symBinAddr: 0x100002344, symSize: 0xA4 }
  - { offsetInCU: 0xBEF1, offset: 0xBEF1, size: 0x8, addend: 0x0, symName: __ZNSt3__15dequeINS_4pairIiiEENS_9allocatorIS2_EEE5clearEv, symObjAddr: 0xD24, symBinAddr: 0x1000023E8, symSize: 0x1A8 }
  - { offsetInCU: 0xBF55, offset: 0xBF55, size: 0x8, addend: 0x0, symName: __ZNKSt3__15dequeINS_4pairIiiEENS_9allocatorIS2_EEE17__annotate_deleteB8ue170006Ev, symObjAddr: 0xECC, symBinAddr: 0x100002590, symSize: 0xE8 }
  - { offsetInCU: 0xBF99, offset: 0xBF99, size: 0x8, addend: 0x0, symName: __ZNSt3__114__split_bufferIPNS_4pairIiiEENS_9allocatorIS3_EEE5beginB8ue170006Ev, symObjAddr: 0xFB4, symBinAddr: 0x100002678, symSize: 0x18 }
  - { offsetInCU: 0xBFBF, offset: 0xBFBF, size: 0x8, addend: 0x0, symName: __ZNSt3__114__split_bufferIPNS_4pairIiiEENS_9allocatorIS3_EEE3endB8ue170006Ev, symObjAddr: 0xFCC, symBinAddr: 0x100002690, symSize: 0x18 }
  - { offsetInCU: 0xBFE5, offset: 0xBFE5, size: 0x8, addend: 0x0, symName: __ZNSt3__116allocator_traitsINS_9allocatorINS_4pairIiiEEEEE10deallocateB8ue170006ERS4_PS3_m, symObjAddr: 0xFE4, symBinAddr: 0x1000026A8, symSize: 0x34 }
  - { offsetInCU: 0xC027, offset: 0xC027, size: 0x8, addend: 0x0, symName: __ZNSt3__15dequeINS_4pairIiiEENS_9allocatorIS2_EEE7__allocB8ue170006Ev, symObjAddr: 0x1018, symBinAddr: 0x1000026DC, symSize: 0x28 }
  - { offsetInCU: 0xC04D, offset: 0xC04D, size: 0x8, addend: 0x0, symName: __ZNSt3__114__split_bufferIPNS_4pairIiiEENS_9allocatorIS3_EEED1Ev, symObjAddr: 0x1040, symBinAddr: 0x100002704, symSize: 0x2C }
  - { offsetInCU: 0xC079, offset: 0xC079, size: 0x8, addend: 0x0, symName: __ZNSt3__15dequeINS_4pairIiiEENS_9allocatorIS2_EEE5beginB8ue170006Ev, symObjAddr: 0x106C, symBinAddr: 0x100002730, symSize: 0xCC }
  - { offsetInCU: 0xC0AE, offset: 0xC0AE, size: 0x8, addend: 0x0, symName: __ZNSt3__15dequeINS_4pairIiiEENS_9allocatorIS2_EEE3endB8ue170006Ev, symObjAddr: 0x1138, symBinAddr: 0x1000027FC, symSize: 0xBC }
  - { offsetInCU: 0xC0F2, offset: 0xC0F2, size: 0x8, addend: 0x0, symName: __ZNSt3__116allocator_traitsINS_9allocatorINS_4pairIiiEEEEE7destroyB8ue170006IS3_vEEvRS4_PT_, symObjAddr: 0x1228, symBinAddr: 0x1000028EC, symSize: 0x2C }
  - { offsetInCU: 0xC12F, offset: 0xC12F, size: 0x8, addend: 0x0, symName: __ZNKSt3__116__deque_iteratorINS_4pairIiiEEPS2_RS2_PS3_lLl512EEdeB8ue170006Ev, symObjAddr: 0x1254, symBinAddr: 0x100002918, symSize: 0x18 }
  - { offsetInCU: 0xC155, offset: 0xC155, size: 0x8, addend: 0x0, symName: __ZNSt3__116__deque_iteratorINS_4pairIiiEEPS2_RS2_PS3_lLl512EEppB8ue170006Ev, symObjAddr: 0x126C, symBinAddr: 0x100002930, symSize: 0x70 }
  - { offsetInCU: 0xC17B, offset: 0xC17B, size: 0x8, addend: 0x0, symName: __ZNSt3__15dequeINS_4pairIiiEENS_9allocatorIS2_EEE6__sizeB8ue170006Ev, symObjAddr: 0x12DC, symBinAddr: 0x1000029A0, symSize: 0x28 }
  - { offsetInCU: 0xC1A1, offset: 0xC1A1, size: 0x8, addend: 0x0, symName: __ZNKSt3__114__split_bufferIPNS_4pairIiiEENS_9allocatorIS3_EEE4sizeB8ue170006Ev, symObjAddr: 0x1304, symBinAddr: 0x1000029C8, symSize: 0x28 }
  - { offsetInCU: 0xC1C7, offset: 0xC1C7, size: 0x8, addend: 0x0, symName: __ZNSt3__114__split_bufferIPNS_4pairIiiEENS_9allocatorIS3_EEE5frontB8ue170006Ev, symObjAddr: 0x132C, symBinAddr: 0x1000029F0, symSize: 0x18 }
  - { offsetInCU: 0xC1ED, offset: 0xC1ED, size: 0x8, addend: 0x0, symName: __ZNSt3__114__split_bufferIPNS_4pairIiiEENS_9allocatorIS3_EEE9pop_frontB8ue170006Ev, symObjAddr: 0x1344, symBinAddr: 0x100002A08, symSize: 0x2C }
  - { offsetInCU: 0xC213, offset: 0xC213, size: 0x8, addend: 0x0, symName: __ZNKSt3__15dequeINS_4pairIiiEENS_9allocatorIS2_EEE14__annotate_newB8ue170006Em, symObjAddr: 0x1370, symBinAddr: 0x100002A34, symSize: 0xB8 }
  - { offsetInCU: 0xC248, offset: 0xC248, size: 0x8, addend: 0x0, symName: __ZNKSt3__114__split_bufferIPNS_4pairIiiEENS_9allocatorIS3_EEE5emptyB8ue170006Ev, symObjAddr: 0x1428, symBinAddr: 0x100002AEC, symSize: 0x28 }
  - { offsetInCU: 0xC26E, offset: 0xC26E, size: 0x8, addend: 0x0, symName: __ZNSt3__116__deque_iteratorINS_4pairIiiEEPS2_RS2_PS3_lLl512EEC1B8ue170006ES5_S3_, symObjAddr: 0x1450, symBinAddr: 0x100002B14, symSize: 0x3C }
  - { offsetInCU: 0xC2B6, offset: 0xC2B6, size: 0x8, addend: 0x0, symName: __ZNSt3__116__deque_iteratorINS_4pairIiiEEPS2_RS2_PS3_lLl512EEC2B8ue170006ES5_S3_, symObjAddr: 0x148C, symBinAddr: 0x100002B50, symSize: 0x2C }
  - { offsetInCU: 0xC2FE, offset: 0xC2FE, size: 0x8, addend: 0x0, symName: __ZNKSt3__15dequeINS_4pairIiiEENS_9allocatorIS2_EEE4sizeB8ue170006Ev, symObjAddr: 0x14B8, symBinAddr: 0x100002B7C, symSize: 0x28 }
  - { offsetInCU: 0xC324, offset: 0xC324, size: 0x8, addend: 0x0, symName: __ZNKSt3__15dequeINS_4pairIiiEENS_9allocatorIS2_EEE6__sizeB8ue170006Ev, symObjAddr: 0x14E0, symBinAddr: 0x100002BA4, symSize: 0x28 }
  - { offsetInCU: 0xC34A, offset: 0xC34A, size: 0x8, addend: 0x0, symName: __ZNKSt3__117__compressed_pairImNS_9allocatorINS_4pairIiiEEEEE5firstB8ue170006Ev, symObjAddr: 0x1508, symBinAddr: 0x100002BCC, symSize: 0x24 }
  - { offsetInCU: 0xC370, offset: 0xC370, size: 0x8, addend: 0x0, symName: __ZNKSt3__122__compressed_pair_elemImLi0ELb0EE5__getB8ue170006Ev, symObjAddr: 0x152C, symBinAddr: 0x100002BF0, symSize: 0x14 }
  - { offsetInCU: 0xC396, offset: 0xC396, size: 0x8, addend: 0x0, symName: __ZNSt3__19allocatorINS_4pairIiiEEE7destroyB8ue170006EPS2_, symObjAddr: 0x1570, symBinAddr: 0x100002C34, symSize: 0x14 }
  - { offsetInCU: 0xC3CA, offset: 0xC3CA, size: 0x8, addend: 0x0, symName: __ZNSt3__117__compressed_pairImNS_9allocatorINS_4pairIiiEEEEE5firstB8ue170006Ev, symObjAddr: 0x1584, symBinAddr: 0x100002C48, symSize: 0x24 }
  - { offsetInCU: 0xC3F0, offset: 0xC3F0, size: 0x8, addend: 0x0, symName: __ZNSt3__122__compressed_pair_elemImLi0ELb0EE5__getB8ue170006Ev, symObjAddr: 0x15A8, symBinAddr: 0x100002C6C, symSize: 0x14 }
  - { offsetInCU: 0xC416, offset: 0xC416, size: 0x8, addend: 0x0, symName: __ZNSt3__114__split_bufferIPNS_4pairIiiEENS_9allocatorIS3_EEE19__destruct_at_beginB8ue170006EPS3_, symObjAddr: 0x15BC, symBinAddr: 0x100002C80, symSize: 0x2C }
  - { offsetInCU: 0xC44A, offset: 0xC44A, size: 0x8, addend: 0x0, symName: __ZNSt3__114__split_bufferIPNS_4pairIiiEENS_9allocatorIS3_EEE19__destruct_at_beginEPS3_NS_17integral_constantIbLb1EEE, symObjAddr: 0x15E8, symBinAddr: 0x100002CAC, symSize: 0x20 }
  - { offsetInCU: 0xC48A, offset: 0xC48A, size: 0x8, addend: 0x0, symName: __ZNKSt3__15dequeINS_4pairIiiEENS_9allocatorIS2_EEE18__annotate_from_toB8ue170006EmmNS5_22__asan_annotation_typeENS5_23__asan_annotation_placeE, symObjAddr: 0x1608, symBinAddr: 0x100002CCC, symSize: 0x580 }
  - { offsetInCU: 0xC648, offset: 0xC648, size: 0x8, addend: 0x0, symName: __ZNKSt3__114__split_bufferIPNS_4pairIiiEENS_9allocatorIS3_EEE5beginB8ue170006Ev, symObjAddr: 0x1B88, symBinAddr: 0x10000324C, symSize: 0x18 }
  - { offsetInCU: 0xC66E, offset: 0xC66E, size: 0x8, addend: 0x0, symName: __ZNKSt3__15dequeINS_4pairIiiEENS_9allocatorIS2_EEE5emptyB8ue170006Ev, symObjAddr: 0x1BA0, symBinAddr: 0x100003264, symSize: 0x30 }
  - { offsetInCU: 0xC694, offset: 0xC694, size: 0x8, addend: 0x0, symName: __ZNKSt3__15dequeINS_4pairIiiEENS_9allocatorIS2_EEE44__annotate_double_ended_contiguous_containerB8ue170006EPKvS7_S7_S7_S7_S7_, symObjAddr: 0x1BE4, symBinAddr: 0x1000032A8, symSize: 0x28 }
  - { offsetInCU: 0xC702, offset: 0xC702, size: 0x8, addend: 0x0, symName: __ZNKSt3__15dequeINS_4pairIiiEENS_9allocatorIS2_EEE22__annotate_whole_blockB8ue170006EmNS5_22__asan_annotation_typeE, symObjAddr: 0x1C0C, symBinAddr: 0x1000032D0, symSize: 0xAC }
  - { offsetInCU: 0xC773, offset: 0xC773, size: 0x8, addend: 0x0, symName: __ZNKSt3__15dequeINS_4pairIiiEENS_9allocatorIS2_EEE23__annotate_poison_blockB8ue170006EPKvS7_, symObjAddr: 0x1CB8, symBinAddr: 0x10000337C, symSize: 0x44 }
  - { offsetInCU: 0xC7B7, offset: 0xC7B7, size: 0x8, addend: 0x0, symName: __ZNSt3__19allocatorINS_4pairIiiEEE10deallocateB8ue170006EPS2_m, symObjAddr: 0x1CFC, symBinAddr: 0x1000033C0, symSize: 0x70 }
  - { offsetInCU: 0xC7F9, offset: 0xC7F9, size: 0x8, addend: 0x0, symName: __ZNSt3__117__compressed_pairImNS_9allocatorINS_4pairIiiEEEEE6secondB8ue170006Ev, symObjAddr: 0x1DF4, symBinAddr: 0x1000034B8, symSize: 0x24 }
  - { offsetInCU: 0xC81F, offset: 0xC81F, size: 0x8, addend: 0x0, symName: __ZNSt3__122__compressed_pair_elemINS_9allocatorINS_4pairIiiEEEELi1ELb1EE5__getB8ue170006Ev, symObjAddr: 0x1E18, symBinAddr: 0x1000034DC, symSize: 0x14 }
  - { offsetInCU: 0xC845, offset: 0xC845, size: 0x8, addend: 0x0, symName: __ZNSt3__114__split_bufferIPNS_4pairIiiEENS_9allocatorIS3_EEED2Ev, symObjAddr: 0x1E2C, symBinAddr: 0x1000034F0, symSize: 0x80 }
  - { offsetInCU: 0xC871, offset: 0xC871, size: 0x8, addend: 0x0, symName: __ZNSt3__114__split_bufferIPNS_4pairIiiEENS_9allocatorIS3_EEE5clearB8ue170006Ev, symObjAddr: 0x1EAC, symBinAddr: 0x100003570, symSize: 0x28 }
  - { offsetInCU: 0xC897, offset: 0xC897, size: 0x8, addend: 0x0, symName: __ZNSt3__116allocator_traitsINS_9allocatorIPNS_4pairIiiEEEEE10deallocateB8ue170006ERS5_PS4_m, symObjAddr: 0x1ED4, symBinAddr: 0x100003598, symSize: 0x34 }
  - { offsetInCU: 0xC8D9, offset: 0xC8D9, size: 0x8, addend: 0x0, symName: __ZNSt3__114__split_bufferIPNS_4pairIiiEENS_9allocatorIS3_EEE7__allocB8ue170006Ev, symObjAddr: 0x1F08, symBinAddr: 0x1000035CC, symSize: 0x28 }
  - { offsetInCU: 0xC8FF, offset: 0xC8FF, size: 0x8, addend: 0x0, symName: __ZNKSt3__114__split_bufferIPNS_4pairIiiEENS_9allocatorIS3_EEE8capacityB8ue170006Ev, symObjAddr: 0x1F30, symBinAddr: 0x1000035F4, symSize: 0x40 }
  - { offsetInCU: 0xC925, offset: 0xC925, size: 0x8, addend: 0x0, symName: __ZNSt3__114__split_bufferIPNS_4pairIiiEENS_9allocatorIS3_EEE17__destruct_at_endB8ue170006EPS3_, symObjAddr: 0x1F70, symBinAddr: 0x100003634, symSize: 0x2C }
  - { offsetInCU: 0xC959, offset: 0xC959, size: 0x8, addend: 0x0, symName: __ZNSt3__114__split_bufferIPNS_4pairIiiEENS_9allocatorIS3_EEE17__destruct_at_endB8ue170006EPS3_NS_17integral_constantIbLb0EEE, symObjAddr: 0x1F9C, symBinAddr: 0x100003660, symSize: 0x94 }
  - { offsetInCU: 0xC999, offset: 0xC999, size: 0x8, addend: 0x0, symName: __ZNSt3__116allocator_traitsINS_9allocatorIPNS_4pairIiiEEEEE7destroyB8ue170006IS4_vEEvRS5_PT_, symObjAddr: 0x2030, symBinAddr: 0x1000036F4, symSize: 0x2C }
  - { offsetInCU: 0xC9D6, offset: 0xC9D6, size: 0x8, addend: 0x0, symName: __ZNSt3__19allocatorIPNS_4pairIiiEEE7destroyB8ue170006EPS3_, symObjAddr: 0x2070, symBinAddr: 0x100003734, symSize: 0x14 }
  - { offsetInCU: 0xCA0A, offset: 0xCA0A, size: 0x8, addend: 0x0, symName: __ZNSt3__19allocatorIPNS_4pairIiiEEE10deallocateB8ue170006EPS3_m, symObjAddr: 0x2084, symBinAddr: 0x100003748, symSize: 0x70 }
  - { offsetInCU: 0xCA4C, offset: 0xCA4C, size: 0x8, addend: 0x0, symName: __ZNSt3__117__compressed_pairIPPNS_4pairIiiEENS_9allocatorIS3_EEE6secondB8ue170006Ev, symObjAddr: 0x20F4, symBinAddr: 0x1000037B8, symSize: 0x24 }
  - { offsetInCU: 0xCA72, offset: 0xCA72, size: 0x8, addend: 0x0, symName: __ZNSt3__122__compressed_pair_elemINS_9allocatorIPNS_4pairIiiEEEELi1ELb1EE5__getB8ue170006Ev, symObjAddr: 0x2118, symBinAddr: 0x1000037DC, symSize: 0x14 }
  - { offsetInCU: 0xCA98, offset: 0xCA98, size: 0x8, addend: 0x0, symName: __ZNKSt3__114__split_bufferIPNS_4pairIiiEENS_9allocatorIS3_EEE9__end_capB8ue170006Ev, symObjAddr: 0x212C, symBinAddr: 0x1000037F0, symSize: 0x28 }
  - { offsetInCU: 0xCABE, offset: 0xCABE, size: 0x8, addend: 0x0, symName: __ZNKSt3__117__compressed_pairIPPNS_4pairIiiEENS_9allocatorIS3_EEE5firstB8ue170006Ev, symObjAddr: 0x2154, symBinAddr: 0x100003818, symSize: 0x24 }
  - { offsetInCU: 0xCAE4, offset: 0xCAE4, size: 0x8, addend: 0x0, symName: __ZNKSt3__122__compressed_pair_elemIPPNS_4pairIiiEELi0ELb0EE5__getB8ue170006Ev, symObjAddr: 0x2178, symBinAddr: 0x10000383C, symSize: 0x14 }
  - { offsetInCU: 0xCB0A, offset: 0xCB0A, size: 0x8, addend: 0x0, symName: __ZNSt3__112basic_stringIcNS_11char_traitsIcEENS_9allocatorIcEEEC2B8ue170006Ev, symObjAddr: 0x218C, symBinAddr: 0x100003850, symSize: 0x3C }
  - { offsetInCU: 0xCB39, offset: 0xCB39, size: 0x8, addend: 0x0, symName: __ZNSt3__117__compressed_pairINS_12basic_stringIcNS_11char_traitsIcEENS_9allocatorIcEEE5__repES5_EC1B8ue170006INS_18__default_init_tagESA_EEOT_OT0_, symObjAddr: 0x21C8, symBinAddr: 0x10000388C, symSize: 0x3C }
  - { offsetInCU: 0xCB91, offset: 0xCB91, size: 0x8, addend: 0x0, symName: __ZNSt3__112basic_stringIcNS_11char_traitsIcEENS_9allocatorIcEEE14__default_initB8ue170006Ev, symObjAddr: 0x2204, symBinAddr: 0x1000038C8, symSize: 0xB0 }
  - { offsetInCU: 0xCBE4, offset: 0xCBE4, size: 0x8, addend: 0x0, symName: __ZNSt3__117__compressed_pairINS_12basic_stringIcNS_11char_traitsIcEENS_9allocatorIcEEE5__repES5_EC2B8ue170006INS_18__default_init_tagESA_EEOT_OT0_, symObjAddr: 0x22B4, symBinAddr: 0x100003978, symSize: 0x3C }
  - { offsetInCU: 0xCC3C, offset: 0xCC3C, size: 0x8, addend: 0x0, symName: __ZNSt3__122__compressed_pair_elemINS_12basic_stringIcNS_11char_traitsIcEENS_9allocatorIcEEE5__repELi0ELb0EEC2B8ue170006ENS_18__default_init_tagE, symObjAddr: 0x22F0, symBinAddr: 0x1000039B4, symSize: 0x14 }
  - { offsetInCU: 0xCC70, offset: 0xCC70, size: 0x8, addend: 0x0, symName: __ZNSt3__122__compressed_pair_elemINS_9allocatorIcEELi1ELb1EEC2B8ue170006ENS_18__default_init_tagE, symObjAddr: 0x2304, symBinAddr: 0x1000039C8, symSize: 0x2C }
  - { offsetInCU: 0xCCA4, offset: 0xCCA4, size: 0x8, addend: 0x0, symName: __ZNSt3__19allocatorIcEC2B8ue170006Ev, symObjAddr: 0x2330, symBinAddr: 0x1000039F4, symSize: 0x2C }
  - { offsetInCU: 0xCCCE, offset: 0xCCCE, size: 0x8, addend: 0x0, symName: __ZNSt3__116__non_trivial_ifILb1ENS_9allocatorIcEEEC2B8ue170006Ev, symObjAddr: 0x235C, symBinAddr: 0x100003A20, symSize: 0x14 }
  - { offsetInCU: 0xCCF8, offset: 0xCCF8, size: 0x8, addend: 0x0, symName: __ZNSt3__117__compressed_pairINS_12basic_stringIcNS_11char_traitsIcEENS_9allocatorIcEEE5__repES5_E5firstB8ue170006Ev, symObjAddr: 0x2370, symBinAddr: 0x100003A34, symSize: 0x24 }
  - { offsetInCU: 0xCD1E, offset: 0xCD1E, size: 0x8, addend: 0x0, symName: __ZNSt3__112basic_stringIcNS_11char_traitsIcEENS_9allocatorIcEEE11__recommendB8ue170006Em, symObjAddr: 0x2394, symBinAddr: 0x100003A58, symSize: 0x9C }
  - { offsetInCU: 0xCD51, offset: 0xCD51, size: 0x8, addend: 0x0, symName: __ZNSt3__116allocator_traitsINS_9allocatorIcEEE8allocateB8ue170006ERS2_m, symObjAddr: 0x2430, symBinAddr: 0x100003AF4, symSize: 0x2C }
  - { offsetInCU: 0xCD84, offset: 0xCD84, size: 0x8, addend: 0x0, symName: __ZNSt3__112basic_stringIcNS_11char_traitsIcEENS_9allocatorIcEEE7__allocB8ue170006Ev, symObjAddr: 0x245C, symBinAddr: 0x100003B20, symSize: 0x24 }
  - { offsetInCU: 0xCDAA, offset: 0xCDAA, size: 0x8, addend: 0x0, symName: __ZNSt3__112basic_stringIcNS_11char_traitsIcEENS_9allocatorIcEEE16__begin_lifetimeB8ue170006EPcm, symObjAddr: 0x2480, symBinAddr: 0x100003B44, symSize: 0x14 }
  - { offsetInCU: 0xCDDD, offset: 0xCDDD, size: 0x8, addend: 0x0, symName: __ZNSt3__112basic_stringIcNS_11char_traitsIcEENS_9allocatorIcEEE18__set_long_pointerB8ue170006EPc, symObjAddr: 0x2494, symBinAddr: 0x100003B58, symSize: 0x38 }
  - { offsetInCU: 0xCE12, offset: 0xCE12, size: 0x8, addend: 0x0, symName: __ZNSt3__112basic_stringIcNS_11char_traitsIcEENS_9allocatorIcEEE14__set_long_capB8ue170006Em, symObjAddr: 0x24CC, symBinAddr: 0x100003B90, symSize: 0x70 }
  - { offsetInCU: 0xCE47, offset: 0xCE47, size: 0x8, addend: 0x0, symName: __ZNSt3__112basic_stringIcNS_11char_traitsIcEENS_9allocatorIcEEE15__set_long_sizeB8ue170006Em, symObjAddr: 0x253C, symBinAddr: 0x100003C00, symSize: 0x38 }
  - { offsetInCU: 0xCE7C, offset: 0xCE7C, size: 0x8, addend: 0x0, symName: __ZNSt3__122__compressed_pair_elemINS_12basic_stringIcNS_11char_traitsIcEENS_9allocatorIcEEE5__repELi0ELb0EE5__getB8ue170006Ev, symObjAddr: 0x2574, symBinAddr: 0x100003C38, symSize: 0x14 }
  - { offsetInCU: 0xCEA2, offset: 0xCEA2, size: 0x8, addend: 0x0, symName: __ZNSt3__112basic_stringIcNS_11char_traitsIcEENS_9allocatorIcEEE10__align_itB8ue170006ILm16EEEmm, symObjAddr: 0x2588, symBinAddr: 0x100003C4C, symSize: 0x1C }
  - { offsetInCU: 0xCED0, offset: 0xCED0, size: 0x8, addend: 0x0, symName: __ZNSt3__19allocatorIcE8allocateB8ue170006Em, symObjAddr: 0x25A4, symBinAddr: 0x100003C68, symSize: 0x84 }
  - { offsetInCU: 0xCF0E, offset: 0xCF0E, size: 0x8, addend: 0x0, symName: __ZNSt3__116allocator_traitsINS_9allocatorIcEEE8max_sizeB8ue170006IS2_vEEmRKS2_, symObjAddr: 0x2628, symBinAddr: 0x100003CEC, symSize: 0x24 }
  - { offsetInCU: 0xCF3C, offset: 0xCF3C, size: 0x8, addend: 0x0, symName: __ZNKSt3__19allocatorIcE8max_sizeB8ue170006Ev, symObjAddr: 0x26A8, symBinAddr: 0x100003D6C, symSize: 0x14 }
  - { offsetInCU: 0xCF62, offset: 0xCF62, size: 0x8, addend: 0x0, symName: __ZNSt3__117__compressed_pairINS_12basic_stringIcNS_11char_traitsIcEENS_9allocatorIcEEE5__repES5_E6secondB8ue170006Ev, symObjAddr: 0x26E0, symBinAddr: 0x100003DA4, symSize: 0x24 }
  - { offsetInCU: 0xCF88, offset: 0xCF88, size: 0x8, addend: 0x0, symName: __ZNSt3__122__compressed_pair_elemINS_9allocatorIcEELi1ELb1EE5__getB8ue170006Ev, symObjAddr: 0x2704, symBinAddr: 0x100003DC8, symSize: 0x14 }
  - { offsetInCU: 0xCFAE, offset: 0xCFAE, size: 0x8, addend: 0x0, symName: __ZNSt3__15queueINS_4pairIiiEENS_5dequeIS2_NS_9allocatorIS2_EEEEEC2B8ue170006Ev, symObjAddr: 0x2718, symBinAddr: 0x100003DDC, symSize: 0x2C }
  - { offsetInCU: 0xCFD8, offset: 0xCFD8, size: 0x8, addend: 0x0, symName: __ZNSt3__15dequeINS_4pairIiiEENS_9allocatorIS2_EEEC1B8ue170006Ev, symObjAddr: 0x2744, symBinAddr: 0x100003E08, symSize: 0x2C }
  - { offsetInCU: 0xD002, offset: 0xD002, size: 0x8, addend: 0x0, symName: __ZNSt3__15dequeINS_4pairIiiEENS_9allocatorIS2_EEEC2B8ue170006Ev, symObjAddr: 0x2770, symBinAddr: 0x100003E34, symSize: 0x84 }
  - { offsetInCU: 0xD02C, offset: 0xD02C, size: 0x8, addend: 0x0, symName: __ZNSt3__114__split_bufferIPNS_4pairIiiEENS_9allocatorIS3_EEEC1B8ue170006Ev, symObjAddr: 0x27F4, symBinAddr: 0x100003EB8, symSize: 0x2C }
  - { offsetInCU: 0xD05B, offset: 0xD05B, size: 0x8, addend: 0x0, symName: __ZNSt3__117__compressed_pairImNS_9allocatorINS_4pairIiiEEEEEC1B8ue170006IiNS_18__default_init_tagEEEOT_OT0_, symObjAddr: 0x2820, symBinAddr: 0x100003EE4, symSize: 0x3C }
  - { offsetInCU: 0xD0B3, offset: 0xD0B3, size: 0x8, addend: 0x0, symName: __ZNSt3__114__split_bufferIPNS_4pairIiiEENS_9allocatorIS3_EEEC2B8ue170006Ev, symObjAddr: 0x285C, symBinAddr: 0x100003F20, symSize: 0x48 }
  - { offsetInCU: 0xD0E2, offset: 0xD0E2, size: 0x8, addend: 0x0, symName: __ZNSt3__117__compressed_pairIPPNS_4pairIiiEENS_9allocatorIS3_EEEC1B8ue170006IDnNS_18__default_init_tagEEEOT_OT0_, symObjAddr: 0x28A4, symBinAddr: 0x100003F68, symSize: 0x3C }
  - { offsetInCU: 0xD13A, offset: 0xD13A, size: 0x8, addend: 0x0, symName: __ZNSt3__117__compressed_pairIPPNS_4pairIiiEENS_9allocatorIS3_EEEC2B8ue170006IDnNS_18__default_init_tagEEEOT_OT0_, symObjAddr: 0x28E0, symBinAddr: 0x100003FA4, symSize: 0x40 }
  - { offsetInCU: 0xD192, offset: 0xD192, size: 0x8, addend: 0x0, symName: __ZNSt3__122__compressed_pair_elemIPPNS_4pairIiiEELi0ELb0EEC2B8ue170006IDnvEEOT_, symObjAddr: 0x2920, symBinAddr: 0x100003FE4, symSize: 0x1C }
  - { offsetInCU: 0xD1D4, offset: 0xD1D4, size: 0x8, addend: 0x0, symName: __ZNSt3__122__compressed_pair_elemINS_9allocatorIPNS_4pairIiiEEEELi1ELb1EEC2B8ue170006ENS_18__default_init_tagE, symObjAddr: 0x293C, symBinAddr: 0x100004000, symSize: 0x2C }
  - { offsetInCU: 0xD208, offset: 0xD208, size: 0x8, addend: 0x0, symName: __ZNSt3__19allocatorIPNS_4pairIiiEEEC2B8ue170006Ev, symObjAddr: 0x2968, symBinAddr: 0x10000402C, symSize: 0x2C }
  - { offsetInCU: 0xD232, offset: 0xD232, size: 0x8, addend: 0x0, symName: __ZNSt3__116__non_trivial_ifILb1ENS_9allocatorIPNS_4pairIiiEEEEEC2B8ue170006Ev, symObjAddr: 0x2994, symBinAddr: 0x100004058, symSize: 0x14 }
  - { offsetInCU: 0xD25C, offset: 0xD25C, size: 0x8, addend: 0x0, symName: __ZNSt3__117__compressed_pairImNS_9allocatorINS_4pairIiiEEEEEC2B8ue170006IiNS_18__default_init_tagEEEOT_OT0_, symObjAddr: 0x29A8, symBinAddr: 0x10000406C, symSize: 0x40 }
  - { offsetInCU: 0xD2B4, offset: 0xD2B4, size: 0x8, addend: 0x0, symName: __ZNSt3__122__compressed_pair_elemImLi0ELb0EEC2B8ue170006IivEEOT_, symObjAddr: 0x29E8, symBinAddr: 0x1000040AC, symSize: 0x24 }
  - { offsetInCU: 0xD2F6, offset: 0xD2F6, size: 0x8, addend: 0x0, symName: __ZNSt3__122__compressed_pair_elemINS_9allocatorINS_4pairIiiEEEELi1ELb1EEC2B8ue170006ENS_18__default_init_tagE, symObjAddr: 0x2A0C, symBinAddr: 0x1000040D0, symSize: 0x2C }
  - { offsetInCU: 0xD32A, offset: 0xD32A, size: 0x8, addend: 0x0, symName: __ZNSt3__19allocatorINS_4pairIiiEEEC2B8ue170006Ev, symObjAddr: 0x2A38, symBinAddr: 0x1000040FC, symSize: 0x2C }
  - { offsetInCU: 0xD354, offset: 0xD354, size: 0x8, addend: 0x0, symName: __ZNSt3__116__non_trivial_ifILb1ENS_9allocatorINS_4pairIiiEEEEEC2B8ue170006Ev, symObjAddr: 0x2A64, symBinAddr: 0x100004128, symSize: 0x14 }
  - { offsetInCU: 0xD49B, offset: 0xD49B, size: 0x8, addend: 0x0, symName: __ZNKSt3__113basic_istreamIcNS_11char_traitsIcEEE6sentrycvbB8ue170006Ev, symObjAddr: 0x2A78, symBinAddr: 0x10000413C, symSize: 0x1C }
  - { offsetInCU: 0xD4C1, offset: 0xD4C1, size: 0x8, addend: 0x0, symName: __ZNSt3__112basic_stringIcNS_11char_traitsIcEENS_9allocatorIcEEE5clearB8ue170006Ev, symObjAddr: 0x2A94, symBinAddr: 0x100004158, symSize: 0x78 }
  - { offsetInCU: 0xD4E9, offset: 0xD4E9, size: 0x8, addend: 0x0, symName: __ZNKSt3__18ios_base5widthB8ue170006Ev, symObjAddr: 0x2B0C, symBinAddr: 0x1000041D0, symSize: 0x18 }
  - { offsetInCU: 0xD511, offset: 0xD511, size: 0x8, addend: 0x0, symName: __ZNKSt3__112basic_stringIcNS_11char_traitsIcEENS_9allocatorIcEEE8max_sizeB8ue170006Ev, symObjAddr: 0x2B24, symBinAddr: 0x1000041E8, symSize: 0xAC }
  - { offsetInCU: 0xD564, offset: 0xD564, size: 0x8, addend: 0x0, symName: __ZNSt3__114numeric_limitsIlE3maxB8ue170006Ev, symObjAddr: 0x2BD0, symBinAddr: 0x100004294, symSize: 0x14 }
  - { offsetInCU: 0xD578, offset: 0xD578, size: 0x8, addend: 0x0, symName: __ZNKSt3__19basic_iosIcNS_11char_traitsIcEEE5rdbufB8ue170006Ev, symObjAddr: 0x2C10, symBinAddr: 0x1000042D4, symSize: 0x24 }
  - { offsetInCU: 0xD5A0, offset: 0xD5A0, size: 0x8, addend: 0x0, symName: __ZNSt3__115basic_streambufIcNS_11char_traitsIcEEE5sgetcB8ue170006Ev, symObjAddr: 0x2C34, symBinAddr: 0x1000042F8, symSize: 0x70 }
  - { offsetInCU: 0xD5C6, offset: 0xD5C6, size: 0x8, addend: 0x0, symName: __ZNSt3__111char_traitsIcE11eq_int_typeB8ue170006Eii, symObjAddr: 0x2CA4, symBinAddr: 0x100004368, symSize: 0x28 }
  - { offsetInCU: 0xD5F9, offset: 0xD5F9, size: 0x8, addend: 0x0, symName: __ZNSt3__111char_traitsIcE3eofB8ue170006Ev, symObjAddr: 0x2CCC, symBinAddr: 0x100004390, symSize: 0x8 }
  - { offsetInCU: 0xD60D, offset: 0xD60D, size: 0x8, addend: 0x0, symName: __ZNSt3__111char_traitsIcE12to_char_typeB8ue170006Ei, symObjAddr: 0x2CD4, symBinAddr: 0x100004398, symSize: 0x18 }
  - { offsetInCU: 0xD658, offset: 0xD658, size: 0x8, addend: 0x0, symName: __ZNKSt3__15ctypeIcE2isB8ue170006Ejc, symObjAddr: 0x2CEC, symBinAddr: 0x1000043B0, symSize: 0x7C }
  - { offsetInCU: 0xD69C, offset: 0xD69C, size: 0x8, addend: 0x0, symName: __ZNSt3__115basic_streambufIcNS_11char_traitsIcEEE6sbumpcB8ue170006Ev, symObjAddr: 0x2D68, symBinAddr: 0x10000442C, symSize: 0x78 }
  - { offsetInCU: 0xD6C2, offset: 0xD6C2, size: 0x8, addend: 0x0, symName: __ZNSt3__18ios_base5widthB8ue170006El, symObjAddr: 0x2DE0, symBinAddr: 0x1000044A4, symSize: 0x2C }
  - { offsetInCU: 0xD708, offset: 0xD708, size: 0x8, addend: 0x0, symName: __ZNSt3__18ios_base18__setstate_nothrowB8ue170006Ej, symObjAddr: 0x2E0C, symBinAddr: 0x1000044D0, symSize: 0x64 }
  - { offsetInCU: 0xD73D, offset: 0xD73D, size: 0x8, addend: 0x0, symName: __ZNKSt3__19basic_iosIcNS_11char_traitsIcEEE10exceptionsB8ue170006Ev, symObjAddr: 0x2E70, symBinAddr: 0x100004534, symSize: 0x24 }
  - { offsetInCU: 0xD763, offset: 0xD763, size: 0x8, addend: 0x0, symName: __ZNSt3__19basic_iosIcNS_11char_traitsIcEEE8setstateB8ue170006Ej, symObjAddr: 0x2E94, symBinAddr: 0x100004558, symSize: 0x2C }
  - { offsetInCU: 0xD798, offset: 0xD798, size: 0x8, addend: 0x0, symName: __ZNKSt3__112basic_stringIcNS_11char_traitsIcEENS_9allocatorIcEEE9__is_longB8ue170006Ev, symObjAddr: 0x2EC0, symBinAddr: 0x100004584, symSize: 0x74 }
  - { offsetInCU: 0xD7BE, offset: 0xD7BE, size: 0x8, addend: 0x0, symName: __ZNSt3__111char_traitsIcE6assignB8ue170006ERcRKc, symObjAddr: 0x2F34, symBinAddr: 0x1000045F8, symSize: 0x24 }
  - { offsetInCU: 0xD7EF, offset: 0xD7EF, size: 0x8, addend: 0x0, symName: __ZNSt3__112basic_stringIcNS_11char_traitsIcEENS_9allocatorIcEEE18__get_long_pointerB8ue170006Ev, symObjAddr: 0x2F58, symBinAddr: 0x10000461C, symSize: 0x28 }
  - { offsetInCU: 0xD815, offset: 0xD815, size: 0x8, addend: 0x0, symName: __ZNSt3__112basic_stringIcNS_11char_traitsIcEENS_9allocatorIcEEE19__get_short_pointerB8ue170006Ev, symObjAddr: 0x2F80, symBinAddr: 0x100004644, symSize: 0x28 }
  - { offsetInCU: 0xD83B, offset: 0xD83B, size: 0x8, addend: 0x0, symName: __ZNSt3__112basic_stringIcNS_11char_traitsIcEENS_9allocatorIcEEE16__set_short_sizeB8ue170006Em, symObjAddr: 0x2FA8, symBinAddr: 0x10000466C, symSize: 0x78 }
  - { offsetInCU: 0xD870, offset: 0xD870, size: 0x8, addend: 0x0, symName: __ZNKSt3__117__compressed_pairINS_12basic_stringIcNS_11char_traitsIcEENS_9allocatorIcEEE5__repES5_E5firstB8ue170006Ev, symObjAddr: 0x3020, symBinAddr: 0x1000046E4, symSize: 0x24 }
  - { offsetInCU: 0xD896, offset: 0xD896, size: 0x8, addend: 0x0, symName: __ZNKSt3__122__compressed_pair_elemINS_12basic_stringIcNS_11char_traitsIcEENS_9allocatorIcEEE5__repELi0ELb0EE5__getB8ue170006Ev, symObjAddr: 0x3044, symBinAddr: 0x100004708, symSize: 0x14 }
  - { offsetInCU: 0xD8BC, offset: 0xD8BC, size: 0x8, addend: 0x0, symName: __ZNSt3__114pointer_traitsIPcE10pointer_toB8ue170006ERc, symObjAddr: 0x3058, symBinAddr: 0x10000471C, symSize: 0x14 }
  - { offsetInCU: 0xD8DF, offset: 0xD8DF, size: 0x8, addend: 0x0, symName: __ZNKSt3__112basic_stringIcNS_11char_traitsIcEENS_9allocatorIcEEE7__allocB8ue170006Ev, symObjAddr: 0x306C, symBinAddr: 0x100004730, symSize: 0x24 }
  - { offsetInCU: 0xD905, offset: 0xD905, size: 0x8, addend: 0x0, symName: __ZNSt3__114numeric_limitsImE3maxB8ue170006Ev, symObjAddr: 0x3090, symBinAddr: 0x100004754, symSize: 0x14 }
  - { offsetInCU: 0xD919, offset: 0xD919, size: 0x8, addend: 0x0, symName: __ZNKSt3__117__compressed_pairINS_12basic_stringIcNS_11char_traitsIcEENS_9allocatorIcEEE5__repES5_E6secondB8ue170006Ev, symObjAddr: 0x30A4, symBinAddr: 0x100004768, symSize: 0x24 }
  - { offsetInCU: 0xD93F, offset: 0xD93F, size: 0x8, addend: 0x0, symName: __ZNKSt3__122__compressed_pair_elemINS_9allocatorIcEELi1ELb1EE5__getB8ue170006Ev, symObjAddr: 0x30C8, symBinAddr: 0x10000478C, symSize: 0x14 }
  - { offsetInCU: 0xD965, offset: 0xD965, size: 0x8, addend: 0x0, symName: __ZNSt3__123__libcpp_numeric_limitsImLb1EE3maxB8ue170006Ev, symObjAddr: 0x30DC, symBinAddr: 0x1000047A0, symSize: 0x8 }
  - { offsetInCU: 0xD979, offset: 0xD979, size: 0x8, addend: 0x0, symName: __ZNSt3__123__libcpp_numeric_limitsIlLb1EE3maxB8ue170006Ev, symObjAddr: 0x30E4, symBinAddr: 0x1000047A8, symSize: 0x8 }
  - { offsetInCU: 0xD98D, offset: 0xD98D, size: 0x8, addend: 0x0, symName: __ZNKSt3__18ios_base5rdbufB8ue170006Ev, symObjAddr: 0x30EC, symBinAddr: 0x1000047B0, symSize: 0x18 }
  - { offsetInCU: 0xD9B3, offset: 0xD9B3, size: 0x8, addend: 0x0, symName: __ZNSt3__111char_traitsIcE11to_int_typeB8ue170006Ec, symObjAddr: 0x3104, symBinAddr: 0x1000047C8, symSize: 0x14 }
  - { offsetInCU: 0xD9D6, offset: 0xD9D6, size: 0x8, addend: 0x0, symName: __Z7isasciii, symObjAddr: 0x3118, symBinAddr: 0x1000047DC, symSize: 0x24 }
  - { offsetInCU: 0xDA03, offset: 0xDA03, size: 0x8, addend: 0x0, symName: __ZNKSt3__18ios_base10exceptionsB8ue170006Ev, symObjAddr: 0x313C, symBinAddr: 0x100004800, symSize: 0x18 }
  - { offsetInCU: 0xDA2B, offset: 0xDA2B, size: 0x8, addend: 0x0, symName: __ZNSt3__18ios_base8setstateB8ue170006Ej, symObjAddr: 0x3154, symBinAddr: 0x100004818, symSize: 0x34 }
  - { offsetInCU: 0xDA62, offset: 0xDA62, size: 0x8, addend: 0x0, symName: __ZNSt3__112basic_stringIcNS_11char_traitsIcEENS_9allocatorIcEEE13__get_pointerB8ue170006Ev, symObjAddr: 0x3188, symBinAddr: 0x10000484C, symSize: 0x54 }
  - { offsetInCU: 0xDA88, offset: 0xDA88, size: 0x8, addend: 0x0, symName: __ZNSt3__15dequeINS_4pairIiiEENS_9allocatorIS2_EEE9push_backERKS2_, symObjAddr: 0x31DC, symBinAddr: 0x1000048A0, symSize: 0xAC }
  - { offsetInCU: 0xDACE, offset: 0xDACE, size: 0x8, addend: 0x0, symName: __ZNKSt3__15dequeINS_4pairIiiEENS_9allocatorIS2_EEE12__back_spareB8ue170006Ev, symObjAddr: 0x3288, symBinAddr: 0x10000494C, symSize: 0x54 }
  - { offsetInCU: 0xDAF4, offset: 0xDAF4, size: 0x8, addend: 0x0, symName: __ZNSt3__15dequeINS_4pairIiiEENS_9allocatorIS2_EEE19__add_back_capacityEv, symObjAddr: 0x32DC, symBinAddr: 0x1000049A0, symSize: 0x364 }
  - { offsetInCU: 0xDBAC, offset: 0xDBAC, size: 0x8, addend: 0x0, symName: __ZNKSt3__15dequeINS_4pairIiiEENS_9allocatorIS2_EEE24__annotate_increase_backB8ue170006Em, symObjAddr: 0x3640, symBinAddr: 0x100004D04, symSize: 0x7C }
  - { offsetInCU: 0xDBE1, offset: 0xDBE1, size: 0x8, addend: 0x0, symName: __ZNSt3__116allocator_traitsINS_9allocatorINS_4pairIiiEEEEE9constructB8ue170006IS3_JRKS3_EvEEvRS4_PT_DpOT0_, symObjAddr: 0x36BC, symBinAddr: 0x100004D80, symSize: 0x34 }
  - { offsetInCU: 0xDC38, offset: 0xDC38, size: 0x8, addend: 0x0, symName: __ZNKSt3__15dequeINS_4pairIiiEENS_9allocatorIS2_EEE10__capacityB8ue170006Ev, symObjAddr: 0x36F0, symBinAddr: 0x100004DB4, symSize: 0x60 }
  - { offsetInCU: 0xDC5E, offset: 0xDC5E, size: 0x8, addend: 0x0, symName: __ZNKSt3__15dequeINS_4pairIiiEENS_9allocatorIS2_EEE13__front_spareB8ue170006Ev, symObjAddr: 0x3750, symBinAddr: 0x100004E14, symSize: 0x18 }
  - { offsetInCU: 0xDC84, offset: 0xDC84, size: 0x8, addend: 0x0, symName: __ZNSt3__114__split_bufferIPNS_4pairIiiEENS_9allocatorIS3_EEE9push_backB8ue170006ERKS3_, symObjAddr: 0x3768, symBinAddr: 0x100004E2C, symSize: 0x270 }
  - { offsetInCU: 0xDCFD, offset: 0xDCFD, size: 0x8, addend: 0x0, symName: __ZNKSt3__114__split_bufferIPNS_4pairIiiEENS_9allocatorIS3_EEE12__back_spareB8ue170006Ev, symObjAddr: 0x39D8, symBinAddr: 0x10000509C, symSize: 0x40 }
  - { offsetInCU: 0xDD23, offset: 0xDD23, size: 0x8, addend: 0x0, symName: __ZNSt3__114__split_bufferIPNS_4pairIiiEENS_9allocatorIS3_EEE9push_backEOS3_, symObjAddr: 0x3A18, symBinAddr: 0x1000050DC, symSize: 0x270 }
  - { offsetInCU: 0xDD9C, offset: 0xDD9C, size: 0x8, addend: 0x0, symName: __ZNSt3__116allocator_traitsINS_9allocatorINS_4pairIiiEEEEE8allocateB8ue170006ERS4_m, symObjAddr: 0x3C88, symBinAddr: 0x10000534C, symSize: 0x2C }
  - { offsetInCU: 0xDDCF, offset: 0xDDCF, size: 0x8, addend: 0x0, symName: __ZNSt3__114__split_bufferIPNS_4pairIiiEENS_9allocatorIS3_EEE10push_frontEOS3_, symObjAddr: 0x3CB4, symBinAddr: 0x100005378, symSize: 0x26C }
  - { offsetInCU: 0xDE48, offset: 0xDE48, size: 0x8, addend: 0x0, symName: __ZNSt3__114__split_bufferIPNS_4pairIiiEERNS_9allocatorIS3_EEEC1EmmS6_, symObjAddr: 0x3F4C, symBinAddr: 0x100005610, symSize: 0x44 }
  - { offsetInCU: 0xDEA3, offset: 0xDEA3, size: 0x8, addend: 0x0, symName: __ZNSt3__122__allocator_destructorINS_9allocatorINS_4pairIiiEEEEEC1B8ue170006ERS4_m, symObjAddr: 0x3F90, symBinAddr: 0x100005654, symSize: 0x3C }
  - { offsetInCU: 0xDF6B, offset: 0xDF6B, size: 0x8, addend: 0x0, symName: __ZNSt3__110unique_ptrIPNS_4pairIiiEENS_22__allocator_destructorINS_9allocatorIS2_EEEEEC1B8ue170006ILb1EvEES3_NS_16__dependent_typeINS_27__unique_ptr_deleter_sfinaeIS7_EEXT_EE20__good_rval_ref_typeE, symObjAddr: 0x3FCC, symBinAddr: 0x100005690, symSize: 0x3C }
  - { offsetInCU: 0xDFBC, offset: 0xDFBC, size: 0x8, addend: 0x0, symName: __ZNSt3__114__split_bufferIPNS_4pairIiiEERNS_9allocatorIS3_EEE9push_backEOS3_, symObjAddr: 0x4008, symBinAddr: 0x1000056CC, symSize: 0x270 }
  - { offsetInCU: 0xE035, offset: 0xE035, size: 0x8, addend: 0x0, symName: __ZNKSt3__110unique_ptrIPNS_4pairIiiEENS_22__allocator_destructorINS_9allocatorIS2_EEEEE3getB8ue170006Ev, symObjAddr: 0x4278, symBinAddr: 0x10000593C, symSize: 0x28 }
  - { offsetInCU: 0xE05B, offset: 0xE05B, size: 0x8, addend: 0x0, symName: __ZNSt3__110unique_ptrIPNS_4pairIiiEENS_22__allocator_destructorINS_9allocatorIS2_EEEEE7releaseB8ue170006Ev, symObjAddr: 0x42A0, symBinAddr: 0x100005964, symSize: 0x44 }
  - { offsetInCU: 0xE090, offset: 0xE090, size: 0x8, addend: 0x0, symName: __ZNSt3__114__split_bufferIPNS_4pairIiiEERNS_9allocatorIS3_EEE10push_frontERKS3_, symObjAddr: 0x42E4, symBinAddr: 0x1000059A8, symSize: 0x26C }
  - { offsetInCU: 0xE109, offset: 0xE109, size: 0x8, addend: 0x0, symName: __ZNSt3__114__split_bufferIPNS_4pairIiiEENS_9allocatorIS3_EEE9__end_capB8ue170006Ev, symObjAddr: 0x458C, symBinAddr: 0x100005C50, symSize: 0x28 }
  - { offsetInCU: 0xE12F, offset: 0xE12F, size: 0x8, addend: 0x0, symName: __ZNSt3__114__split_bufferIPNS_4pairIiiEERNS_9allocatorIS3_EEE9__end_capB8ue170006Ev, symObjAddr: 0x45B4, symBinAddr: 0x100005C78, symSize: 0x28 }
  - { offsetInCU: 0xE155, offset: 0xE155, size: 0x8, addend: 0x0, symName: __ZNSt3__110unique_ptrIPNS_4pairIiiEENS_22__allocator_destructorINS_9allocatorIS2_EEEEED1B8ue170006Ev, symObjAddr: 0x45DC, symBinAddr: 0x100005CA0, symSize: 0x2C }
  - { offsetInCU: 0xE17F, offset: 0xE17F, size: 0x8, addend: 0x0, symName: __ZNSt3__114__split_bufferIPNS_4pairIiiEERNS_9allocatorIS3_EEED1Ev, symObjAddr: 0x4608, symBinAddr: 0x100005CCC, symSize: 0x2C }
  - { offsetInCU: 0xE1AB, offset: 0xE1AB, size: 0x8, addend: 0x0, symName: __ZNSt3__114__split_bufferIPNS_4pairIiiEERNS_9allocatorIS3_EEE18__construct_at_endINS_13move_iteratorIPS3_EEEENS_9enable_ifIXsr31__has_forward_iterator_categoryIT_EE5valueEvE4typeESD_SD_, symObjAddr: 0x4674, symBinAddr: 0x100005D38, symSize: 0x60 }
  - { offsetInCU: 0xE1F8, offset: 0xE1F8, size: 0x8, addend: 0x0, symName: __ZNSt3__113move_iteratorIPPNS_4pairIiiEEEC1B8ue170006ES4_, symObjAddr: 0x46D4, symBinAddr: 0x100005D98, symSize: 0x34 }
  - { offsetInCU: 0xE230, offset: 0xE230, size: 0x8, addend: 0x0, symName: __ZNSt3__116allocator_traitsINS_9allocatorIPNS_4pairIiiEEEEE9constructB8ue170006IS4_JRKS4_EvEEvRS5_PT_DpOT0_, symObjAddr: 0x4708, symBinAddr: 0x100005DCC, symSize: 0x34 }
  - { offsetInCU: 0xE2AA, offset: 0xE2AA, size: 0x8, addend: 0x0, symName: __ZNKSt3__114__move_trivialclB8ue170006IPNS_4pairIiiEES4_Li0EEENS2_IPT_PT0_EES6_S6_S8_, symObjAddr: 0x48D8, symBinAddr: 0x100005F9C, symSize: 0x48 }
  - { offsetInCU: 0xE312, offset: 0xE312, size: 0x8, addend: 0x0, symName: __ZNSt3__14pairIPPNS0_IiiEES3_EC1B8ue170006ERKS3_S6_, symObjAddr: 0x4B50, symBinAddr: 0x100006214, symSize: 0x3C }
  - { offsetInCU: 0xE358, offset: 0xE358, size: 0x8, addend: 0x0, symName: __ZNSt3__14pairIPPNS0_IiiEES3_EC2B8ue170006ERKS3_S6_, symObjAddr: 0x4B8C, symBinAddr: 0x100006250, symSize: 0x34 }
  - { offsetInCU: 0xE39E, offset: 0xE39E, size: 0x8, addend: 0x0, symName: __ZNSt3__118__unwrap_iter_implIPPNS_4pairIiiEELb1EE8__unwrapB8ue170006ES4_, symObjAddr: 0x4BC0, symBinAddr: 0x100006284, symSize: 0x24 }
  - { offsetInCU: 0xE3C1, offset: 0xE3C1, size: 0x8, addend: 0x0, symName: __ZNSt3__118__unwrap_iter_implIPPNS_4pairIiiEELb1EE8__rewrapB8ue170006ES4_S4_, symObjAddr: 0x4BE4, symBinAddr: 0x1000062A8, symSize: 0x50 }
  - { offsetInCU: 0xE3F2, offset: 0xE3F2, size: 0x8, addend: 0x0, symName: __ZNSt3__114__split_bufferIPNS_4pairIiiEERNS_9allocatorIS3_EEE28__construct_at_end_with_sizeINS_13move_iteratorIPS3_EEEEvT_m, symObjAddr: 0x4C34, symBinAddr: 0x1000062F8, symSize: 0xE4 }
  - { offsetInCU: 0xE458, offset: 0xE458, size: 0x8, addend: 0x0, symName: __ZNSt3__114__split_bufferIPNS_4pairIiiEERNS_9allocatorIS3_EEE21_ConstructTransactionC1B8ue170006EPPS3_m, symObjAddr: 0x4D54, symBinAddr: 0x100006418, symSize: 0x3C }
  - { offsetInCU: 0xE49E, offset: 0xE49E, size: 0x8, addend: 0x0, symName: __ZNSt3__116allocator_traitsINS_9allocatorIPNS_4pairIiiEEEEE9constructB8ue170006IS4_JS4_EvEEvRS5_PT_DpOT0_, symObjAddr: 0x4D90, symBinAddr: 0x100006454, symSize: 0x34 }
  - { offsetInCU: 0xE4F5, offset: 0xE4F5, size: 0x8, addend: 0x0, symName: __ZNSt3__114__split_bufferIPNS_4pairIiiEERNS_9allocatorIS3_EEE7__allocB8ue170006Ev, symObjAddr: 0x4DC4, symBinAddr: 0x100006488, symSize: 0x28 }
  - { offsetInCU: 0xE51B, offset: 0xE51B, size: 0x8, addend: 0x0, symName: __ZNKSt3__113move_iteratorIPPNS_4pairIiiEEEdeB8ue170006Ev, symObjAddr: 0x4DEC, symBinAddr: 0x1000064B0, symSize: 0x18 }
  - { offsetInCU: 0xE541, offset: 0xE541, size: 0x8, addend: 0x0, symName: __ZNSt3__113move_iteratorIPPNS_4pairIiiEEEppB8ue170006Ev, symObjAddr: 0x4E04, symBinAddr: 0x1000064C8, symSize: 0x20 }
  - { offsetInCU: 0xE567, offset: 0xE567, size: 0x8, addend: 0x0, symName: __ZNSt3__114__split_bufferIPNS_4pairIiiEERNS_9allocatorIS3_EEE21_ConstructTransactionD1B8ue170006Ev, symObjAddr: 0x4E24, symBinAddr: 0x1000064E8, symSize: 0x2C }
  - { offsetInCU: 0xE591, offset: 0xE591, size: 0x8, addend: 0x0, symName: __ZNSt3__114__split_bufferIPNS_4pairIiiEERNS_9allocatorIS3_EEE21_ConstructTransactionC2B8ue170006EPPS3_m, symObjAddr: 0x4E50, symBinAddr: 0x100006514, symSize: 0x44 }
  - { offsetInCU: 0xE5D7, offset: 0xE5D7, size: 0x8, addend: 0x0, symName: __ZNSt3__19allocatorIPNS_4pairIiiEEE9constructB8ue170006IS3_JS3_EEEvPT_DpOT0_, symObjAddr: 0x4E94, symBinAddr: 0x100006558, symSize: 0x28 }
  - { offsetInCU: 0xE62D, offset: 0xE62D, size: 0x8, addend: 0x0, symName: __ZNSt3__117__compressed_pairIPPNS_4pairIiiEERNS_9allocatorIS3_EEE6secondB8ue170006Ev, symObjAddr: 0x4EBC, symBinAddr: 0x100006580, symSize: 0x28 }
  - { offsetInCU: 0xE653, offset: 0xE653, size: 0x8, addend: 0x0, symName: __ZNSt3__122__compressed_pair_elemIRNS_9allocatorIPNS_4pairIiiEEEELi1ELb0EE5__getB8ue170006Ev, symObjAddr: 0x4EE4, symBinAddr: 0x1000065A8, symSize: 0x18 }
  - { offsetInCU: 0xE679, offset: 0xE679, size: 0x8, addend: 0x0, symName: __ZNSt3__114__split_bufferIPNS_4pairIiiEERNS_9allocatorIS3_EEE21_ConstructTransactionD2B8ue170006Ev, symObjAddr: 0x4EFC, symBinAddr: 0x1000065C0, symSize: 0x20 }
  - { offsetInCU: 0xE6A3, offset: 0xE6A3, size: 0x8, addend: 0x0, symName: __ZNKSt3__113move_iteratorIPPNS_4pairIiiEEE4baseB8ue170006Ev, symObjAddr: 0x4F94, symBinAddr: 0x100006658, symSize: 0x18 }
  - { offsetInCU: 0xE6C9, offset: 0xE6C9, size: 0x8, addend: 0x0, symName: __ZNSt3__113move_iteratorIPPNS_4pairIiiEEEC2B8ue170006ES4_, symObjAddr: 0x4FAC, symBinAddr: 0x100006670, symSize: 0x20 }
  - { offsetInCU: 0xE701, offset: 0xE701, size: 0x8, addend: 0x0, symName: __ZNSt3__19allocatorIPNS_4pairIiiEEE9constructB8ue170006IS3_JRKS3_EEEvPT_DpOT0_, symObjAddr: 0x4FCC, symBinAddr: 0x100006690, symSize: 0x28 }
  - { offsetInCU: 0xE757, offset: 0xE757, size: 0x8, addend: 0x0, symName: __ZNSt3__19allocatorINS_4pairIiiEEE8allocateB8ue170006Em, symObjAddr: 0x4FF4, symBinAddr: 0x1000066B8, symSize: 0x84 }
  - { offsetInCU: 0xE795, offset: 0xE795, size: 0x8, addend: 0x0, symName: __ZNSt3__116allocator_traitsINS_9allocatorINS_4pairIiiEEEEE8max_sizeB8ue170006IS4_vEEmRKS4_, symObjAddr: 0x5078, symBinAddr: 0x10000673C, symSize: 0x24 }
  - { offsetInCU: 0xE7C3, offset: 0xE7C3, size: 0x8, addend: 0x0, symName: __ZNKSt3__19allocatorINS_4pairIiiEEE8max_sizeB8ue170006Ev, symObjAddr: 0x509C, symBinAddr: 0x100006760, symSize: 0x14 }
  - { offsetInCU: 0xE7F3, offset: 0xE7F3, size: 0x8, addend: 0x0, symName: __ZNKSt3__123__move_backward_trivialclB8ue170006IPNS_4pairIiiEES4_Li0EEENS2_IPT_PT0_EES6_S6_S8_, symObjAddr: 0x522C, symBinAddr: 0x1000068F0, symSize: 0x48 }
  - { offsetInCU: 0xE865, offset: 0xE865, size: 0x8, addend: 0x0, symName: __ZNKSt3__16__lessIvvEclB8ue170006ImmEEbRKT_RKT0_, symObjAddr: 0x5390, symBinAddr: 0x100006A54, symSize: 0x34 }
  - { offsetInCU: 0xE8B9, offset: 0xE8B9, size: 0x8, addend: 0x0, symName: __ZNSt3__114__split_bufferIPNS_4pairIiiEERNS_9allocatorIS3_EEEC2EmmS6_, symObjAddr: 0x53C4, symBinAddr: 0x100006A88, symSize: 0xD4 }
  - { offsetInCU: 0xE92D, offset: 0xE92D, size: 0x8, addend: 0x0, symName: __ZNSt3__117__compressed_pairIPPNS_4pairIiiEERNS_9allocatorIS3_EEEC1B8ue170006IDnS7_EEOT_OT0_, symObjAddr: 0x5498, symBinAddr: 0x100006B5C, symSize: 0x3C }
  - { offsetInCU: 0xE985, offset: 0xE985, size: 0x8, addend: 0x0, symName: __ZNSt3__117__compressed_pairIPPNS_4pairIiiEERNS_9allocatorIS3_EEEC2B8ue170006IDnS7_EEOT_OT0_, symObjAddr: 0x5514, symBinAddr: 0x100006BD8, symSize: 0x48 }
  - { offsetInCU: 0xE9DD, offset: 0xE9DD, size: 0x8, addend: 0x0, symName: __ZNSt3__122__compressed_pair_elemIRNS_9allocatorIPNS_4pairIiiEEEELi1ELb0EEC2B8ue170006IS6_vEEOT_, symObjAddr: 0x555C, symBinAddr: 0x100006C20, symSize: 0x20 }
  - { offsetInCU: 0xEA1F, offset: 0xEA1F, size: 0x8, addend: 0x0, symName: __ZNSt3__19allocatorIPNS_4pairIiiEEE8allocateB8ue170006Em, symObjAddr: 0x557C, symBinAddr: 0x100006C40, symSize: 0x84 }
  - { offsetInCU: 0xEA5D, offset: 0xEA5D, size: 0x8, addend: 0x0, symName: __ZNSt3__116allocator_traitsINS_9allocatorIPNS_4pairIiiEEEEE8max_sizeB8ue170006IS5_vEEmRKS5_, symObjAddr: 0x5600, symBinAddr: 0x100006CC4, symSize: 0x24 }
  - { offsetInCU: 0xEA8B, offset: 0xEA8B, size: 0x8, addend: 0x0, symName: __ZNKSt3__19allocatorIPNS_4pairIiiEEE8max_sizeB8ue170006Ev, symObjAddr: 0x5624, symBinAddr: 0x100006CE8, symSize: 0x14 }
  - { offsetInCU: 0xEAB1, offset: 0xEAB1, size: 0x8, addend: 0x0, symName: __ZNSt3__122__allocator_destructorINS_9allocatorINS_4pairIiiEEEEEC2B8ue170006ERS4_m, symObjAddr: 0x5638, symBinAddr: 0x100006CFC, symSize: 0x2C }
  - { offsetInCU: 0xEAF7, offset: 0xEAF7, size: 0x8, addend: 0x0, symName: __ZNSt3__110unique_ptrIPNS_4pairIiiEENS_22__allocator_destructorINS_9allocatorIS2_EEEEEC2B8ue170006ILb1EvEES3_NS_16__dependent_typeINS_27__unique_ptr_deleter_sfinaeIS7_EEXT_EE20__good_rval_ref_typeE, symObjAddr: 0x5664, symBinAddr: 0x100006D28, symSize: 0x5C }
  - { offsetInCU: 0xEB48, offset: 0xEB48, size: 0x8, addend: 0x0, symName: __ZNSt3__117__compressed_pairIPNS_4pairIiiEENS_22__allocator_destructorINS_9allocatorIS2_EEEEEC1B8ue170006IRS3_S7_EEOT_OT0_, symObjAddr: 0x56C0, symBinAddr: 0x100006D84, symSize: 0x3C }
  - { offsetInCU: 0xEBA0, offset: 0xEBA0, size: 0x8, addend: 0x0, symName: __ZNSt3__117__compressed_pairIPNS_4pairIiiEENS_22__allocator_destructorINS_9allocatorIS2_EEEEEC2B8ue170006IRS3_S7_EEOT_OT0_, symObjAddr: 0x56FC, symBinAddr: 0x100006DC0, symSize: 0x48 }
  - { offsetInCU: 0xEBF8, offset: 0xEBF8, size: 0x8, addend: 0x0, symName: __ZNSt3__122__compressed_pair_elemIPNS_4pairIiiEELi0ELb0EEC2B8ue170006IRS3_vEEOT_, symObjAddr: 0x5744, symBinAddr: 0x100006E08, symSize: 0x24 }
  - { offsetInCU: 0xEC3A, offset: 0xEC3A, size: 0x8, addend: 0x0, symName: __ZNSt3__122__compressed_pair_elemINS_22__allocator_destructorINS_9allocatorINS_4pairIiiEEEEEELi1ELb0EEC2B8ue170006IS6_vEEOT_, symObjAddr: 0x5768, symBinAddr: 0x100006E2C, symSize: 0x24 }
  - { offsetInCU: 0xEC7C, offset: 0xEC7C, size: 0x8, addend: 0x0, symName: __ZNKSt3__117__compressed_pairIPNS_4pairIiiEENS_22__allocator_destructorINS_9allocatorIS2_EEEEE5firstB8ue170006Ev, symObjAddr: 0x578C, symBinAddr: 0x100006E50, symSize: 0x24 }
  - { offsetInCU: 0xECA2, offset: 0xECA2, size: 0x8, addend: 0x0, symName: __ZNKSt3__122__compressed_pair_elemIPNS_4pairIiiEELi0ELb0EE5__getB8ue170006Ev, symObjAddr: 0x57B0, symBinAddr: 0x100006E74, symSize: 0x14 }
  - { offsetInCU: 0xECC8, offset: 0xECC8, size: 0x8, addend: 0x0, symName: __ZNSt3__117__compressed_pairIPNS_4pairIiiEENS_22__allocator_destructorINS_9allocatorIS2_EEEEE5firstB8ue170006Ev, symObjAddr: 0x57C4, symBinAddr: 0x100006E88, symSize: 0x24 }
  - { offsetInCU: 0xECEE, offset: 0xECEE, size: 0x8, addend: 0x0, symName: __ZNSt3__122__compressed_pair_elemIPNS_4pairIiiEELi0ELb0EE5__getB8ue170006Ev, symObjAddr: 0x57E8, symBinAddr: 0x100006EAC, symSize: 0x14 }
  - { offsetInCU: 0xED14, offset: 0xED14, size: 0x8, addend: 0x0, symName: __ZNSt3__117__compressed_pairIPPNS_4pairIiiEENS_9allocatorIS3_EEE5firstB8ue170006Ev, symObjAddr: 0x57FC, symBinAddr: 0x100006EC0, symSize: 0x24 }
  - { offsetInCU: 0xED3A, offset: 0xED3A, size: 0x8, addend: 0x0, symName: __ZNSt3__122__compressed_pair_elemIPPNS_4pairIiiEELi0ELb0EE5__getB8ue170006Ev, symObjAddr: 0x5820, symBinAddr: 0x100006EE4, symSize: 0x14 }
  - { offsetInCU: 0xED60, offset: 0xED60, size: 0x8, addend: 0x0, symName: __ZNSt3__117__compressed_pairIPPNS_4pairIiiEERNS_9allocatorIS3_EEE5firstB8ue170006Ev, symObjAddr: 0x5834, symBinAddr: 0x100006EF8, symSize: 0x24 }
  - { offsetInCU: 0xED86, offset: 0xED86, size: 0x8, addend: 0x0, symName: __ZNSt3__110unique_ptrIPNS_4pairIiiEENS_22__allocator_destructorINS_9allocatorIS2_EEEEED2B8ue170006Ev, symObjAddr: 0x5858, symBinAddr: 0x100006F1C, symSize: 0x30 }
  - { offsetInCU: 0xEDB0, offset: 0xEDB0, size: 0x8, addend: 0x0, symName: __ZNSt3__110unique_ptrIPNS_4pairIiiEENS_22__allocator_destructorINS_9allocatorIS2_EEEEE5resetB8ue170006ES3_, symObjAddr: 0x5888, symBinAddr: 0x100006F4C, symSize: 0x78 }
  - { offsetInCU: 0xEDF4, offset: 0xEDF4, size: 0x8, addend: 0x0, symName: __ZNSt3__117__compressed_pairIPNS_4pairIiiEENS_22__allocator_destructorINS_9allocatorIS2_EEEEE6secondB8ue170006Ev, symObjAddr: 0x5900, symBinAddr: 0x100006FC4, symSize: 0x28 }
  - { offsetInCU: 0xEE1A, offset: 0xEE1A, size: 0x8, addend: 0x0, symName: __ZNSt3__122__allocator_destructorINS_9allocatorINS_4pairIiiEEEEEclB8ue170006EPS3_, symObjAddr: 0x5928, symBinAddr: 0x100006FEC, symSize: 0x34 }
  - { offsetInCU: 0xEE4E, offset: 0xEE4E, size: 0x8, addend: 0x0, symName: __ZNSt3__122__compressed_pair_elemINS_22__allocator_destructorINS_9allocatorINS_4pairIiiEEEEEELi1ELb0EE5__getB8ue170006Ev, symObjAddr: 0x595C, symBinAddr: 0x100007020, symSize: 0x14 }
  - { offsetInCU: 0xEE74, offset: 0xEE74, size: 0x8, addend: 0x0, symName: __ZNSt3__114__split_bufferIPNS_4pairIiiEERNS_9allocatorIS3_EEED2Ev, symObjAddr: 0x5970, symBinAddr: 0x100007034, symSize: 0x80 }
  - { offsetInCU: 0xEEA0, offset: 0xEEA0, size: 0x8, addend: 0x0, symName: __ZNSt3__114__split_bufferIPNS_4pairIiiEERNS_9allocatorIS3_EEE5clearB8ue170006Ev, symObjAddr: 0x59F0, symBinAddr: 0x1000070B4, symSize: 0x28 }
  - { offsetInCU: 0xEEC6, offset: 0xEEC6, size: 0x8, addend: 0x0, symName: __ZNKSt3__114__split_bufferIPNS_4pairIiiEERNS_9allocatorIS3_EEE8capacityB8ue170006Ev, symObjAddr: 0x5A18, symBinAddr: 0x1000070DC, symSize: 0x40 }
  - { offsetInCU: 0xEEEC, offset: 0xEEEC, size: 0x8, addend: 0x0, symName: __ZNSt3__114__split_bufferIPNS_4pairIiiEERNS_9allocatorIS3_EEE17__destruct_at_endB8ue170006EPS3_, symObjAddr: 0x5A58, symBinAddr: 0x10000711C, symSize: 0x2C }
  - { offsetInCU: 0xEF20, offset: 0xEF20, size: 0x8, addend: 0x0, symName: __ZNSt3__114__split_bufferIPNS_4pairIiiEERNS_9allocatorIS3_EEE17__destruct_at_endB8ue170006EPS3_NS_17integral_constantIbLb0EEE, symObjAddr: 0x5A84, symBinAddr: 0x100007148, symSize: 0x94 }
  - { offsetInCU: 0xEF60, offset: 0xEF60, size: 0x8, addend: 0x0, symName: __ZNKSt3__114__split_bufferIPNS_4pairIiiEERNS_9allocatorIS3_EEE9__end_capB8ue170006Ev, symObjAddr: 0x5B18, symBinAddr: 0x1000071DC, symSize: 0x28 }
  - { offsetInCU: 0xEF86, offset: 0xEF86, size: 0x8, addend: 0x0, symName: __ZNKSt3__117__compressed_pairIPPNS_4pairIiiEERNS_9allocatorIS3_EEE5firstB8ue170006Ev, symObjAddr: 0x5B40, symBinAddr: 0x100007204, symSize: 0x24 }
  - { offsetInCU: 0xEFAC, offset: 0xEFAC, size: 0x8, addend: 0x0, symName: __ZNSt3__19allocatorINS_4pairIiiEEE9constructB8ue170006IS2_JRKS2_EEEvPT_DpOT0_, symObjAddr: 0x5B64, symBinAddr: 0x100007228, symSize: 0x28 }
  - { offsetInCU: 0xF002, offset: 0xF002, size: 0x8, addend: 0x0, symName: __ZNSt3__14pairIiiEC1B8ue170006ERKiS3_, symObjAddr: 0x5B8C, symBinAddr: 0x100007250, symSize: 0x3C }
  - { offsetInCU: 0xF048, offset: 0xF048, size: 0x8, addend: 0x0, symName: __ZNSt3__14pairIiiEC2B8ue170006ERKiS3_, symObjAddr: 0x5BC8, symBinAddr: 0x10000728C, symSize: 0x34 }
  - { offsetInCU: 0xF08E, offset: 0xF08E, size: 0x8, addend: 0x0, symName: __ZNSt3__15dequeINS_4pairIiiEENS_9allocatorIS2_EEE5frontEv, symObjAddr: 0x5BFC, symBinAddr: 0x1000072C0, symSize: 0x50 }
  - { offsetInCU: 0xF0B6, offset: 0xF0B6, size: 0x8, addend: 0x0, symName: __ZNSt3__15dequeINS_4pairIiiEENS_9allocatorIS2_EEE9pop_frontEv, symObjAddr: 0x5C4C, symBinAddr: 0x100007310, symSize: 0xD4 }
  - { offsetInCU: 0xF10B, offset: 0xF10B, size: 0x8, addend: 0x0, symName: __ZNKSt3__15dequeINS_4pairIiiEENS_9allocatorIS2_EEE23__annotate_shrink_frontB8ue170006Emm, symObjAddr: 0x5D20, symBinAddr: 0x1000073E4, symSize: 0x70 }
  - { offsetInCU: 0xF14F, offset: 0xF14F, size: 0x8, addend: 0x0, symName: __ZNSt3__15dequeINS_4pairIiiEENS_9allocatorIS2_EEE26__maybe_remove_front_spareB8ue170006Eb, symObjAddr: 0x5D90, symBinAddr: 0x100007454, symSize: 0xEC }
  - { offsetInCU: 0xF184, offset: 0xF184, size: 0x8, addend: 0x0, symName: __ZNKSt3__15dequeINS_4pairIiiEENS_9allocatorIS2_EEE20__front_spare_blocksB8ue170006Ev, symObjAddr: 0x5E7C, symBinAddr: 0x100007540, symSize: 0x2C }
...
