---
triple:          'arm64-apple-darwin'
binary-path:     '/Users/ijaehun/Documents/PS/PS/output/1039'
relocations:
  - { offsetInCU: 0x3F, offset: 0x3F, size: 0x8, addend: 0x0, symName: _N, symObjAddr: 0x4FBF0, symBinAddr: 0x100010000, symSize: 0x0 }
  - { offsetInCU: 0x81CE, offset: 0x81CE, size: 0x8, addend: 0x0, symName: __ZNSt3__1rsB8ue170006IcNS_11char_traitsIcEENS_9allocatorIcEEEERNS_13basic_istreamIT_T0_EES9_RNS_12basic_stringIS6_S7_T1_EE, symObjAddr: 0x508, symBinAddr: 0x100003ABC, symSize: 0x324 }
  - { offsetInCU: 0x8A09, offset: 0x8A09, size: 0x8, addend: 0x0, symName: __ZNSt3__1neB8ue170006ERKNS_21__tree_const_iteratorINS_12basic_stringIcNS_11char_traitsIcEENS_9allocatorIcEEEEPNS_11__tree_nodeIS6_PvEElEESD_, symObjAddr: 0x91C, symBinAddr: 0x100003ED0, symSize: 0x34 }
  - { offsetInCU: 0x8A46, offset: 0x8A46, size: 0x8, addend: 0x0, symName: __ZNSt3__14swapB8ue170006IcEEvRT_S2_, symObjAddr: 0xA98, symBinAddr: 0x10000404C, symSize: 0x3C }
  - { offsetInCU: 0x8A97, offset: 0x8A97, size: 0x8, addend: 0x0, symName: __ZNSt3__13maxB8ue170006IiEERKT_S3_S3_, symObjAddr: 0xB34, symBinAddr: 0x1000040E8, symSize: 0x2C }
  - { offsetInCU: 0x8ADA, offset: 0x8ADA, size: 0x8, addend: 0x0, symName: __ZNSt3__1neB8ue170006ERKNS_16__deque_iteratorINS_12basic_stringIcNS_11char_traitsIcEENS_9allocatorIcEEEEPS6_RS6_PS7_lLl170EEESC_, symObjAddr: 0x116C, symBinAddr: 0x100004720, symSize: 0x34 }
  - { offsetInCU: 0x8B17, offset: 0x8B17, size: 0x8, addend: 0x0, symName: __ZNSt3__1eqB8ue170006ERKNS_16__deque_iteratorINS_12basic_stringIcNS_11char_traitsIcEENS_9allocatorIcEEEEPS6_RS6_PS7_lLl170EEESC_, symObjAddr: 0x14C0, symBinAddr: 0x100004A74, symSize: 0x30 }
  - { offsetInCU: 0x8B54, offset: 0x8B54, size: 0x8, addend: 0x0, symName: __ZNSt3__112__to_addressB8ue170006INS_12basic_stringIcNS_11char_traitsIcEENS_9allocatorIcEEEEEEPT_S8_, symObjAddr: 0x1B7C, symBinAddr: 0x100005130, symSize: 0x14 }
  - { offsetInCU: 0x8B89, offset: 0x8B89, size: 0x8, addend: 0x0, symName: __ZNSt3__130__libcpp_is_constant_evaluatedB8ue170006Ev, symObjAddr: 0x1D1C, symBinAddr: 0x1000052D0, symSize: 0xC }
  - { offsetInCU: 0x8BA6, offset: 0x8BA6, size: 0x8, addend: 0x0, symName: __ZNSt3__119__libcpp_deallocateB8ue170006EPvmm, symObjAddr: 0x1D28, symBinAddr: 0x1000052DC, symSize: 0x30 }
  - { offsetInCU: 0x8BEE, offset: 0x8BEE, size: 0x8, addend: 0x0, symName: __ZNSt3__127__do_deallocate_handle_sizeB8ue170006IJEEEvPvmDpT_, symObjAddr: 0x1D58, symBinAddr: 0x10000530C, symSize: 0x28 }
  - { offsetInCU: 0x8C2C, offset: 0x8C2C, size: 0x8, addend: 0x0, symName: __ZNSt3__124__libcpp_operator_deleteB8ue170006IJPvEEEvDpT_, symObjAddr: 0x1D80, symBinAddr: 0x100005334, symSize: 0x24 }
  - { offsetInCU: 0x8C61, offset: 0x8C61, size: 0x8, addend: 0x0, symName: __ZNSt3__112__to_addressB8ue170006IPNS_12basic_stringIcNS_11char_traitsIcEENS_9allocatorIcEEEEEEPT_S9_, symObjAddr: 0x200C, symBinAddr: 0x1000055C0, symSize: 0x14 }
  - { offsetInCU: 0x8C96, offset: 0x8C96, size: 0x8, addend: 0x0, symName: __ZNSt3__117__libcpp_allocateB8ue170006Emm, symObjAddr: 0x2630, symBinAddr: 0x100005BE4, symSize: 0x28 }
  - { offsetInCU: 0x8CD3, offset: 0x8CD3, size: 0x8, addend: 0x0, symName: __ZNSt3__121__libcpp_operator_newB8ue170006IJmEEEPvDpT_, symObjAddr: 0x266C, symBinAddr: 0x100005C20, symSize: 0x24 }
  - { offsetInCU: 0x9B47, offset: 0x9B47, size: 0x8, addend: 0x0, symName: __ZNSt3__19use_facetB8ue170006INS_5ctypeIcEEEERKT_RKNS_6localeE, symObjAddr: 0x2834, symBinAddr: 0x100005DE8, symSize: 0x2C }
  - { offsetInCU: 0xA15A, offset: 0xA15A, size: 0x8, addend: 0x0, symName: __ZNSt3__13maxB8ue170006ImEERKT_S3_S3_, symObjAddr: 0x3E80, symBinAddr: 0x100007434, symSize: 0x2C }
  - { offsetInCU: 0xA626, offset: 0xA626, size: 0x8, addend: 0x0, symName: __ZNSt3__14swapB8ue170006IPPNS_12basic_stringIcNS_11char_traitsIcEENS_9allocatorIcEEEEEEvRT_SA_, symObjAddr: 0x44B0, symBinAddr: 0x100007A64, symSize: 0x3C }
  - { offsetInCU: 0xA677, offset: 0xA677, size: 0x8, addend: 0x0, symName: __ZNSt3__14moveB8ue170006IPPNS_12basic_stringIcNS_11char_traitsIcEENS_9allocatorIcEEEES8_EET0_T_SA_S9_, symObjAddr: 0x4594, symBinAddr: 0x100007B48, symSize: 0x40 }
  - { offsetInCU: 0xA6ED, offset: 0xA6ED, size: 0x8, addend: 0x0, symName: __ZNSt3__16__moveB8ue170006INS_17_ClassicAlgPolicyEPPNS_12basic_stringIcNS_11char_traitsIcEENS_9allocatorIcEEEES9_S9_EENS_4pairIT0_T2_EESB_T1_SC_, symObjAddr: 0x469C, symBinAddr: 0x100007C50, symSize: 0x44 }
  - { offsetInCU: 0xA759, offset: 0xA759, size: 0x8, addend: 0x0, symName: __ZNSt3__123__dispatch_copy_or_moveB8ue170006INS_17_ClassicAlgPolicyENS_11__move_loopIS1_EENS_14__move_trivialEPPNS_12basic_stringIcNS_11char_traitsIcEENS_9allocatorIcEEEESC_SC_EENS_4pairIT2_T4_EESE_T3_SF_, symObjAddr: 0x46E0, symBinAddr: 0x100007C94, symSize: 0x44 }
  - { offsetInCU: 0xA7D7, offset: 0xA7D7, size: 0x8, addend: 0x0, symName: __ZNSt3__121__unwrap_and_dispatchB8ue170006INS_10__overloadINS_11__move_loopINS_17_ClassicAlgPolicyEEENS_14__move_trivialEEEPPNS_12basic_stringIcNS_11char_traitsIcEENS_9allocatorIcEEEESE_SE_Li0EEENS_4pairIT0_T2_EESG_T1_SH_, symObjAddr: 0x4724, symBinAddr: 0x100007CD8, symSize: 0xB4 }
  - { offsetInCU: 0xA865, offset: 0xA865, size: 0x8, addend: 0x0, symName: __ZNSt3__114__unwrap_rangeB8ue170006IPPNS_12basic_stringIcNS_11char_traitsIcEENS_9allocatorIcEEEES8_EENS_4pairIT0_SA_EET_SC_, symObjAddr: 0x47D8, symBinAddr: 0x100007D8C, symSize: 0x60 }
  - { offsetInCU: 0xA9A4, offset: 0xA9A4, size: 0x8, addend: 0x0, symName: __ZNSt3__113__unwrap_iterB8ue170006IPPNS_12basic_stringIcNS_11char_traitsIcEENS_9allocatorIcEEEENS_18__unwrap_iter_implIS8_Lb1EEELi0EEEDTclsrT0_8__unwrapclsr3stdE7declvalIT_EEEESC_, symObjAddr: 0x4880, symBinAddr: 0x100007E34, symSize: 0x24 }
  - { offsetInCU: 0xA9E8, offset: 0xA9E8, size: 0x8, addend: 0x0, symName: __ZNSt3__19make_pairB8ue170006IPPNS_12basic_stringIcNS_11char_traitsIcEENS_9allocatorIcEEEES8_EENS_4pairINS_18__unwrap_ref_decayIT_E4typeENSA_IT0_E4typeEEEOSB_OSE_, symObjAddr: 0x48A4, symBinAddr: 0x100007E58, symSize: 0x38 }
  - { offsetInCU: 0xAA37, offset: 0xAA37, size: 0x8, addend: 0x0, symName: __ZNSt3__114__rewrap_rangeB8ue170006IPPNS_12basic_stringIcNS_11char_traitsIcEENS_9allocatorIcEEEES8_EET_S9_T0_, symObjAddr: 0x48DC, symBinAddr: 0x100007E90, symSize: 0x2C }
  - { offsetInCU: 0xAA83, offset: 0xAA83, size: 0x8, addend: 0x0, symName: __ZNSt3__113__rewrap_iterB8ue170006IPPNS_12basic_stringIcNS_11char_traitsIcEENS_9allocatorIcEEEES8_NS_18__unwrap_iter_implIS8_Lb1EEEEET_SB_T0_, symObjAddr: 0x4908, symBinAddr: 0x100007EBC, symSize: 0x50 }
  - { offsetInCU: 0xAAD8, offset: 0xAAD8, size: 0x8, addend: 0x0, symName: __ZNSt3__119__copy_trivial_implB8ue170006IPNS_12basic_stringIcNS_11char_traitsIcEENS_9allocatorIcEEEES7_EENS_4pairIPT_PT0_EESA_SA_SC_, symObjAddr: 0x4958, symBinAddr: 0x100007F0C, symSize: 0x80 }
  - { offsetInCU: 0xAB40, offset: 0xAB40, size: 0x8, addend: 0x0, symName: __ZNSt3__119__constexpr_memmoveB8ue170006IPNS_12basic_stringIcNS_11char_traitsIcEENS_9allocatorIcEEEES7_Li0EEEPT_S9_PT0_NS_15__element_countE, symObjAddr: 0x49D8, symBinAddr: 0x100007F8C, symSize: 0xA0 }
  - { offsetInCU: 0xABAE, offset: 0xABAE, size: 0x8, addend: 0x0, symName: __ZNSt3__19make_pairB8ue170006IRPPNS_12basic_stringIcNS_11char_traitsIcEENS_9allocatorIcEEEES8_EENS_4pairINS_18__unwrap_ref_decayIT_E4typeENSB_IT0_E4typeEEEOSC_OSF_, symObjAddr: 0x4A78, symBinAddr: 0x10000802C, symSize: 0x38 }
  - { offsetInCU: 0xAC50, offset: 0xAC50, size: 0x8, addend: 0x0, symName: __ZNSt3__18distanceB8ue170006INS_13move_iteratorIPPNS_12basic_stringIcNS_11char_traitsIcEENS_9allocatorIcEEEEEEEENS_15iterator_traitsIT_E15difference_typeESC_SC_, symObjAddr: 0x4C78, symBinAddr: 0x10000822C, symSize: 0x3C }
  - { offsetInCU: 0xAC93, offset: 0xAC93, size: 0x8, addend: 0x0, symName: __ZNSt3__110__distanceB8ue170006INS_13move_iteratorIPPNS_12basic_stringIcNS_11char_traitsIcEENS_9allocatorIcEEEEEEEENS_15iterator_traitsIT_E15difference_typeESC_SC_NS_26random_access_iterator_tagE, symObjAddr: 0x4E7C, symBinAddr: 0x100008430, symSize: 0x30 }
  - { offsetInCU: 0xACE0, offset: 0xACE0, size: 0x8, addend: 0x0, symName: __ZNSt3__1miB8ue170006IPPNS_12basic_stringIcNS_11char_traitsIcEENS_9allocatorIcEEEES8_EENS_13move_iteratorIT_E15difference_typeERKSB_RKNS9_IT0_EE, symObjAddr: 0x4EAC, symBinAddr: 0x100008460, symSize: 0x48 }
  - { offsetInCU: 0xAD2F, offset: 0xAD2F, size: 0x8, addend: 0x0, symName: __ZNSt3__113move_backwardB8ue170006IPPNS_12basic_stringIcNS_11char_traitsIcEENS_9allocatorIcEEEES8_EET0_T_SA_S9_, symObjAddr: 0x501C, symBinAddr: 0x1000085D0, symSize: 0x40 }
  - { offsetInCU: 0xAD89, offset: 0xAD89, size: 0x8, addend: 0x0, symName: __ZNSt3__115__move_backwardB8ue170006INS_17_ClassicAlgPolicyEPPNS_12basic_stringIcNS_11char_traitsIcEENS_9allocatorIcEEEES9_S9_EENS_4pairIT0_T2_EESB_T1_SC_, symObjAddr: 0x505C, symBinAddr: 0x100008610, symSize: 0x44 }
  - { offsetInCU: 0xADF5, offset: 0xADF5, size: 0x8, addend: 0x0, symName: __ZNSt3__123__dispatch_copy_or_moveB8ue170006INS_17_ClassicAlgPolicyENS_20__move_backward_loopIS1_EENS_23__move_backward_trivialEPPNS_12basic_stringIcNS_11char_traitsIcEENS_9allocatorIcEEEESC_SC_EENS_4pairIT2_T4_EESE_T3_SF_, symObjAddr: 0x50A0, symBinAddr: 0x100008654, symSize: 0x44 }
  - { offsetInCU: 0xAE73, offset: 0xAE73, size: 0x8, addend: 0x0, symName: __ZNSt3__121__unwrap_and_dispatchB8ue170006INS_10__overloadINS_20__move_backward_loopINS_17_ClassicAlgPolicyEEENS_23__move_backward_trivialEEEPPNS_12basic_stringIcNS_11char_traitsIcEENS_9allocatorIcEEEESE_SE_Li0EEENS_4pairIT0_T2_EESG_T1_SH_, symObjAddr: 0x50E4, symBinAddr: 0x100008698, symSize: 0xB4 }
  - { offsetInCU: 0xAF47, offset: 0xAF47, size: 0x8, addend: 0x0, symName: __ZNSt3__128__copy_backward_trivial_implB8ue170006IPNS_12basic_stringIcNS_11char_traitsIcEENS_9allocatorIcEEEES7_EENS_4pairIPT_PT0_EESA_SA_SC_, symObjAddr: 0x51E0, symBinAddr: 0x100008794, symSize: 0x90 }
  - { offsetInCU: 0xAFAF, offset: 0xAFAF, size: 0x8, addend: 0x0, symName: __ZNSt3__19make_pairB8ue170006IRPPNS_12basic_stringIcNS_11char_traitsIcEENS_9allocatorIcEEEES9_EENS_4pairINS_18__unwrap_ref_decayIT_E4typeENSB_IT0_E4typeEEEOSC_OSF_, symObjAddr: 0x5270, symBinAddr: 0x100008824, symSize: 0x38 }
  - { offsetInCU: 0xAFFE, offset: 0xAFFE, size: 0x8, addend: 0x0, symName: __ZNSt3__13maxB8ue170006ImNS_6__lessIvvEEEERKT_S5_S5_T0_, symObjAddr: 0x52A8, symBinAddr: 0x10000885C, symSize: 0x54 }
  - { offsetInCU: 0xB0CE, offset: 0xB0CE, size: 0x8, addend: 0x0, symName: __ZNSt3__119__allocate_at_leastB8ue170006INS_9allocatorIPNS_12basic_stringIcNS_11char_traitsIcEENS1_IcEEEEEEEENS_19__allocation_resultINS_16allocator_traitsIT_E7pointerEEERSB_m, symObjAddr: 0x5440, symBinAddr: 0x1000089F4, symSize: 0x40 }
  - { offsetInCU: 0xB144, offset: 0xB144, size: 0x8, addend: 0x0, symName: __ZNSt3__1neB8ue170006ERKNS_15__tree_iteratorINS_12basic_stringIcNS_11char_traitsIcEENS_9allocatorIcEEEEPNS_11__tree_nodeIS6_PvEElEESD_, symObjAddr: 0x65E0, symBinAddr: 0x100009B94, symSize: 0x34 }
  - { offsetInCU: 0xB181, offset: 0xB181, size: 0x8, addend: 0x0, symName: __ZNSt3__1eqB8ue170006ERKNS_15__tree_iteratorINS_12basic_stringIcNS_11char_traitsIcEENS_9allocatorIcEEEEPNS_11__tree_nodeIS6_PvEElEESD_, symObjAddr: 0x6720, symBinAddr: 0x100009CD4, symSize: 0x30 }
  - { offsetInCU: 0xB1BE, offset: 0xB1BE, size: 0x8, addend: 0x0, symName: __ZNSt3__1ltB8ue170006IcNS_11char_traitsIcEENS_9allocatorIcEEEEbRKNS_12basic_stringIT_T0_T1_EESB_, symObjAddr: 0x6788, symBinAddr: 0x100009D3C, symSize: 0x38 }
  - { offsetInCU: 0xB216, offset: 0xB216, size: 0x8, addend: 0x0, symName: __ZNSt3__13minB8ue170006ImEERKT_S3_S3_, symObjAddr: 0x6A58, symBinAddr: 0x10000A00C, symSize: 0x2C }
  - { offsetInCU: 0xB259, offset: 0xB259, size: 0x8, addend: 0x0, symName: __ZNSt3__112__to_addressB8ue170006IKcEEPT_S3_, symObjAddr: 0x6A84, symBinAddr: 0x10000A038, symSize: 0x14 }
  - { offsetInCU: 0xB2C1, offset: 0xB2C1, size: 0x8, addend: 0x0, symName: __ZNSt3__13minB8ue170006ImNS_6__lessIvvEEEERKT_S5_S5_T0_, symObjAddr: 0x6B50, symBinAddr: 0x10000A104, symSize: 0x54 }
  - { offsetInCU: 0xB31B, offset: 0xB31B, size: 0x8, addend: 0x0, symName: __ZNSt3__1eqB8ue170006ERKNS_21__tree_const_iteratorINS_12basic_stringIcNS_11char_traitsIcEENS_9allocatorIcEEEEPNS_11__tree_nodeIS6_PvEElEESD_, symObjAddr: 0x6C44, symBinAddr: 0x10000A1F8, symSize: 0x30 }
  - { offsetInCU: 0xB376, offset: 0xB376, size: 0x8, addend: 0x0, symName: __ZNSt3__127__tree_balance_after_insertB8ue170006IPNS_16__tree_node_baseIPvEEEEvT_S5_, symObjAddr: 0x768C, symBinAddr: 0x10000AC40, symSize: 0x340 }
  - { offsetInCU: 0xB3EA, offset: 0xB3EA, size: 0x8, addend: 0x0, symName: __ZNSt3__120__tree_is_left_childB8ue170006IPNS_16__tree_node_baseIPvEEEEbT_, symObjAddr: 0x7A0C, symBinAddr: 0x10000AFC0, symSize: 0x2C }
  - { offsetInCU: 0xB41F, offset: 0xB41F, size: 0x8, addend: 0x0, symName: __ZNSt3__118__tree_left_rotateB8ue170006IPNS_16__tree_node_baseIPvEEEEvT_, symObjAddr: 0x7A38, symBinAddr: 0x10000AFEC, symSize: 0xEC }
  - { offsetInCU: 0xB461, offset: 0xB461, size: 0x8, addend: 0x0, symName: __ZNSt3__119__tree_right_rotateB8ue170006IPNS_16__tree_node_baseIPvEEEEvT_, symObjAddr: 0x7B24, symBinAddr: 0x10000B0D8, symSize: 0xCC }
  - { offsetInCU: 0xB4A3, offset: 0xB4A3, size: 0x8, addend: 0x0, symName: __ZNSt3__13maxB8ue170006IiNS_6__lessIvvEEEERKT_S5_S5_T0_, symObjAddr: 0x7F10, symBinAddr: 0x10000B4C4, symSize: 0x54 }
  - { offsetInCU: 0xB615, offset: 0xB615, size: 0x8, addend: 0x0, symName: __ZSt28__throw_bad_array_new_lengthB8ue170006v, symObjAddr: 0x25FC, symBinAddr: 0x100005BB0, symSize: 0x34 }
  - { offsetInCU: 0xB7DF, offset: 0xB7DF, size: 0x8, addend: 0x0, symName: _K, symObjAddr: 0x4FC08, symBinAddr: 0x100010018, symSize: 0x0 }
  - { offsetInCU: 0xB7F4, offset: 0xB7F4, size: 0x8, addend: 0x0, symName: _ans, symObjAddr: 0x4FC0C, symBinAddr: 0x10001001C, symSize: 0x0 }
  - { offsetInCU: 0xE145, offset: 0xE145, size: 0x8, addend: 0x0, symName: __ZNSt3__112basic_stringIcNS_11char_traitsIcEENS_9allocatorIcEEEC1B8ue170006Ev, symObjAddr: 0x0, symBinAddr: 0x1000035B4, symSize: 0x2C }
  - { offsetInCU: 0xE16F, offset: 0xE16F, size: 0x8, addend: 0x0, symName: _main, symObjAddr: 0x2C, symBinAddr: 0x1000035E0, symSize: 0x4DC }
  - { offsetInCU: 0xE263, offset: 0xE263, size: 0x8, addend: 0x0, symName: __ZNSt3__15queueINS_12basic_stringIcNS_11char_traitsIcEENS_9allocatorIcEEEENS_5dequeIS6_NS4_IS6_EEEEEC1B8ue170006Ev, symObjAddr: 0x82C, symBinAddr: 0x100003DE0, symSize: 0x2C }
  - { offsetInCU: 0xE28D, offset: 0xE28D, size: 0x8, addend: 0x0, symName: __ZNSt3__15queueINS_12basic_stringIcNS_11char_traitsIcEENS_9allocatorIcEEEENS_5dequeIS6_NS4_IS6_EEEEE4pushB8ue170006ERKS6_, symObjAddr: 0x858, symBinAddr: 0x100003E0C, symSize: 0x2C }
  - { offsetInCU: 0xE321, offset: 0xE321, size: 0x8, addend: 0x0, symName: __ZNSt3__13setINS_12basic_stringIcNS_11char_traitsIcEENS_9allocatorIcEEEENS_4lessIS6_EENS4_IS6_EEEC1B8ue170006Ev, symObjAddr: 0x884, symBinAddr: 0x100003E38, symSize: 0x2C }
  - { offsetInCU: 0xE34B, offset: 0xE34B, size: 0x8, addend: 0x0, symName: __ZNKSt3__15queueINS_12basic_stringIcNS_11char_traitsIcEENS_9allocatorIcEEEENS_5dequeIS6_NS4_IS6_EEEEE4sizeB8ue170006Ev, symObjAddr: 0x8B0, symBinAddr: 0x100003E64, symSize: 0x24 }
  - { offsetInCU: 0xE371, offset: 0xE371, size: 0x8, addend: 0x0, symName: __ZNSt3__15queueINS_12basic_stringIcNS_11char_traitsIcEENS_9allocatorIcEEEENS_5dequeIS6_NS4_IS6_EEEEE5frontB8ue170006Ev, symObjAddr: 0x8D4, symBinAddr: 0x100003E88, symSize: 0x24 }
  - { offsetInCU: 0xE397, offset: 0xE397, size: 0x8, addend: 0x0, symName: __ZNSt3__15queueINS_12basic_stringIcNS_11char_traitsIcEENS_9allocatorIcEEEENS_5dequeIS6_NS4_IS6_EEEEE3popB8ue170006Ev, symObjAddr: 0x8F8, symBinAddr: 0x100003EAC, symSize: 0x24 }
  - { offsetInCU: 0xE3BD, offset: 0xE3BD, size: 0x8, addend: 0x0, symName: __ZNSt3__13setINS_12basic_stringIcNS_11char_traitsIcEENS_9allocatorIcEEEENS_4lessIS6_EENS4_IS6_EEE4findB8ue170006ERKS6_, symObjAddr: 0x950, symBinAddr: 0x100003F04, symSize: 0x40 }
  - { offsetInCU: 0xE3F2, offset: 0xE3F2, size: 0x8, addend: 0x0, symName: __ZNSt3__13setINS_12basic_stringIcNS_11char_traitsIcEENS_9allocatorIcEEEENS_4lessIS6_EENS4_IS6_EEE3endB8ue170006Ev, symObjAddr: 0x990, symBinAddr: 0x100003F44, symSize: 0x38 }
  - { offsetInCU: 0xE418, offset: 0xE418, size: 0x8, addend: 0x0, symName: __ZNSt3__13setINS_12basic_stringIcNS_11char_traitsIcEENS_9allocatorIcEEEENS_4lessIS6_EENS4_IS6_EEE6insertB8ue170006ERKS6_, symObjAddr: 0x9C8, symBinAddr: 0x100003F7C, symSize: 0x4C }
  - { offsetInCU: 0xE44D, offset: 0xE44D, size: 0x8, addend: 0x0, symName: __ZNKSt3__112basic_stringIcNS_11char_traitsIcEENS_9allocatorIcEEE4sizeB8ue170006Ev, symObjAddr: 0xA14, symBinAddr: 0x100003FC8, symSize: 0x54 }
  - { offsetInCU: 0xE473, offset: 0xE473, size: 0x8, addend: 0x0, symName: __ZNSt3__112basic_stringIcNS_11char_traitsIcEENS_9allocatorIcEEEixB8ue170006Em, symObjAddr: 0xA68, symBinAddr: 0x10000401C, symSize: 0x30 }
  - { offsetInCU: 0xE4A8, offset: 0xE4A8, size: 0x8, addend: 0x0, symName: __ZNSt3__13setINS_12basic_stringIcNS_11char_traitsIcEENS_9allocatorIcEEEENS_4lessIS6_EENS4_IS6_EEED1B8ue170006Ev, symObjAddr: 0xAE0, symBinAddr: 0x100004094, symSize: 0x2C }
  - { offsetInCU: 0xE4D2, offset: 0xE4D2, size: 0x8, addend: 0x0, symName: __ZNKSt3__15queueINS_12basic_stringIcNS_11char_traitsIcEENS_9allocatorIcEEEENS_5dequeIS6_NS4_IS6_EEEEE5emptyB8ue170006Ev, symObjAddr: 0xB0C, symBinAddr: 0x1000040C0, symSize: 0x28 }
  - { offsetInCU: 0xE4F8, offset: 0xE4F8, size: 0x8, addend: 0x0, symName: __ZNSt3__15queueINS_12basic_stringIcNS_11char_traitsIcEENS_9allocatorIcEEEENS_5dequeIS6_NS4_IS6_EEEEED1Ev, symObjAddr: 0xB60, symBinAddr: 0x100004114, symSize: 0x2C }
  - { offsetInCU: 0xE525, offset: 0xE525, size: 0x8, addend: 0x0, symName: __ZNSt3__15queueINS_12basic_stringIcNS_11char_traitsIcEENS_9allocatorIcEEEENS_5dequeIS6_NS4_IS6_EEEEED2Ev, symObjAddr: 0xB8C, symBinAddr: 0x100004140, symSize: 0x2C }
  - { offsetInCU: 0xE552, offset: 0xE552, size: 0x8, addend: 0x0, symName: __ZNSt3__15dequeINS_12basic_stringIcNS_11char_traitsIcEENS_9allocatorIcEEEENS4_IS6_EEED1B8ue170006Ev, symObjAddr: 0xBB8, symBinAddr: 0x10000416C, symSize: 0x2C }
  - { offsetInCU: 0xE57C, offset: 0xE57C, size: 0x8, addend: 0x0, symName: __ZNSt3__15dequeINS_12basic_stringIcNS_11char_traitsIcEENS_9allocatorIcEEEENS4_IS6_EEED2B8ue170006Ev, symObjAddr: 0xBE4, symBinAddr: 0x100004198, symSize: 0xA4 }
  - { offsetInCU: 0xE5D2, offset: 0xE5D2, size: 0x8, addend: 0x0, symName: __ZNSt3__15dequeINS_12basic_stringIcNS_11char_traitsIcEENS_9allocatorIcEEEENS4_IS6_EEE5clearEv, symObjAddr: 0xC88, symBinAddr: 0x10000423C, symSize: 0x1A8 }
  - { offsetInCU: 0xE635, offset: 0xE635, size: 0x8, addend: 0x0, symName: __ZNKSt3__15dequeINS_12basic_stringIcNS_11char_traitsIcEENS_9allocatorIcEEEENS4_IS6_EEE17__annotate_deleteB8ue170006Ev, symObjAddr: 0xE30, symBinAddr: 0x1000043E4, symSize: 0xEC }
  - { offsetInCU: 0xE678, offset: 0xE678, size: 0x8, addend: 0x0, symName: __ZNSt3__114__split_bufferIPNS_12basic_stringIcNS_11char_traitsIcEENS_9allocatorIcEEEENS4_IS7_EEE5beginB8ue170006Ev, symObjAddr: 0xF1C, symBinAddr: 0x1000044D0, symSize: 0x18 }
  - { offsetInCU: 0xE69E, offset: 0xE69E, size: 0x8, addend: 0x0, symName: __ZNSt3__114__split_bufferIPNS_12basic_stringIcNS_11char_traitsIcEENS_9allocatorIcEEEENS4_IS7_EEE3endB8ue170006Ev, symObjAddr: 0xF34, symBinAddr: 0x1000044E8, symSize: 0x18 }
  - { offsetInCU: 0xE6C4, offset: 0xE6C4, size: 0x8, addend: 0x0, symName: __ZNSt3__116allocator_traitsINS_9allocatorINS_12basic_stringIcNS_11char_traitsIcEENS1_IcEEEEEEE10deallocateB8ue170006ERS7_PS6_m, symObjAddr: 0xF4C, symBinAddr: 0x100004500, symSize: 0x34 }
  - { offsetInCU: 0xE706, offset: 0xE706, size: 0x8, addend: 0x0, symName: __ZNSt3__15dequeINS_12basic_stringIcNS_11char_traitsIcEENS_9allocatorIcEEEENS4_IS6_EEE7__allocB8ue170006Ev, symObjAddr: 0xF80, symBinAddr: 0x100004534, symSize: 0x28 }
  - { offsetInCU: 0xE72C, offset: 0xE72C, size: 0x8, addend: 0x0, symName: __ZNSt3__114__split_bufferIPNS_12basic_stringIcNS_11char_traitsIcEENS_9allocatorIcEEEENS4_IS7_EEED1Ev, symObjAddr: 0xFA8, symBinAddr: 0x10000455C, symSize: 0x2C }
  - { offsetInCU: 0xE758, offset: 0xE758, size: 0x8, addend: 0x0, symName: __ZNSt3__15dequeINS_12basic_stringIcNS_11char_traitsIcEENS_9allocatorIcEEEENS4_IS6_EEE5beginB8ue170006Ev, symObjAddr: 0xFD4, symBinAddr: 0x100004588, symSize: 0xD4 }
  - { offsetInCU: 0xE78D, offset: 0xE78D, size: 0x8, addend: 0x0, symName: __ZNSt3__15dequeINS_12basic_stringIcNS_11char_traitsIcEENS_9allocatorIcEEEENS4_IS6_EEE3endB8ue170006Ev, symObjAddr: 0x10A8, symBinAddr: 0x10000465C, symSize: 0xC4 }
  - { offsetInCU: 0xE7D1, offset: 0xE7D1, size: 0x8, addend: 0x0, symName: __ZNSt3__116allocator_traitsINS_9allocatorINS_12basic_stringIcNS_11char_traitsIcEENS1_IcEEEEEEE7destroyB8ue170006IS6_vEEvRS7_PT_, symObjAddr: 0x11A0, symBinAddr: 0x100004754, symSize: 0x2C }
  - { offsetInCU: 0xE80E, offset: 0xE80E, size: 0x8, addend: 0x0, symName: __ZNKSt3__116__deque_iteratorINS_12basic_stringIcNS_11char_traitsIcEENS_9allocatorIcEEEEPS6_RS6_PS7_lLl170EEdeB8ue170006Ev, symObjAddr: 0x11CC, symBinAddr: 0x100004780, symSize: 0x18 }
  - { offsetInCU: 0xE834, offset: 0xE834, size: 0x8, addend: 0x0, symName: __ZNSt3__116__deque_iteratorINS_12basic_stringIcNS_11char_traitsIcEENS_9allocatorIcEEEEPS6_RS6_PS7_lLl170EEppB8ue170006Ev, symObjAddr: 0x11E4, symBinAddr: 0x100004798, symSize: 0x70 }
  - { offsetInCU: 0xE85A, offset: 0xE85A, size: 0x8, addend: 0x0, symName: __ZNSt3__15dequeINS_12basic_stringIcNS_11char_traitsIcEENS_9allocatorIcEEEENS4_IS6_EEE6__sizeB8ue170006Ev, symObjAddr: 0x1254, symBinAddr: 0x100004808, symSize: 0x28 }
  - { offsetInCU: 0xE880, offset: 0xE880, size: 0x8, addend: 0x0, symName: __ZNKSt3__114__split_bufferIPNS_12basic_stringIcNS_11char_traitsIcEENS_9allocatorIcEEEENS4_IS7_EEE4sizeB8ue170006Ev, symObjAddr: 0x127C, symBinAddr: 0x100004830, symSize: 0x28 }
  - { offsetInCU: 0xE8A6, offset: 0xE8A6, size: 0x8, addend: 0x0, symName: __ZNSt3__114__split_bufferIPNS_12basic_stringIcNS_11char_traitsIcEENS_9allocatorIcEEEENS4_IS7_EEE5frontB8ue170006Ev, symObjAddr: 0x12A4, symBinAddr: 0x100004858, symSize: 0x18 }
  - { offsetInCU: 0xE8CC, offset: 0xE8CC, size: 0x8, addend: 0x0, symName: __ZNSt3__114__split_bufferIPNS_12basic_stringIcNS_11char_traitsIcEENS_9allocatorIcEEEENS4_IS7_EEE9pop_frontB8ue170006Ev, symObjAddr: 0x12BC, symBinAddr: 0x100004870, symSize: 0x2C }
  - { offsetInCU: 0xE8F2, offset: 0xE8F2, size: 0x8, addend: 0x0, symName: __ZNKSt3__15dequeINS_12basic_stringIcNS_11char_traitsIcEENS_9allocatorIcEEEENS4_IS6_EEE14__annotate_newB8ue170006Em, symObjAddr: 0x12E8, symBinAddr: 0x10000489C, symSize: 0xC0 }
  - { offsetInCU: 0xE927, offset: 0xE927, size: 0x8, addend: 0x0, symName: __ZNKSt3__114__split_bufferIPNS_12basic_stringIcNS_11char_traitsIcEENS_9allocatorIcEEEENS4_IS7_EEE5emptyB8ue170006Ev, symObjAddr: 0x13A8, symBinAddr: 0x10000495C, symSize: 0x28 }
  - { offsetInCU: 0xE94D, offset: 0xE94D, size: 0x8, addend: 0x0, symName: __ZNSt3__116__deque_iteratorINS_12basic_stringIcNS_11char_traitsIcEENS_9allocatorIcEEEEPS6_RS6_PS7_lLl170EEC1B8ue170006ES9_S7_, symObjAddr: 0x13D0, symBinAddr: 0x100004984, symSize: 0x3C }
  - { offsetInCU: 0xE995, offset: 0xE995, size: 0x8, addend: 0x0, symName: __ZNSt3__116__deque_iteratorINS_12basic_stringIcNS_11char_traitsIcEENS_9allocatorIcEEEEPS6_RS6_PS7_lLl170EEC2B8ue170006ES9_S7_, symObjAddr: 0x140C, symBinAddr: 0x1000049C0, symSize: 0x2C }
  - { offsetInCU: 0xE9DD, offset: 0xE9DD, size: 0x8, addend: 0x0, symName: __ZNKSt3__15dequeINS_12basic_stringIcNS_11char_traitsIcEENS_9allocatorIcEEEENS4_IS6_EEE4sizeB8ue170006Ev, symObjAddr: 0x1438, symBinAddr: 0x1000049EC, symSize: 0x28 }
  - { offsetInCU: 0xEA03, offset: 0xEA03, size: 0x8, addend: 0x0, symName: __ZNKSt3__15dequeINS_12basic_stringIcNS_11char_traitsIcEENS_9allocatorIcEEEENS4_IS6_EEE6__sizeB8ue170006Ev, symObjAddr: 0x1460, symBinAddr: 0x100004A14, symSize: 0x28 }
  - { offsetInCU: 0xEA29, offset: 0xEA29, size: 0x8, addend: 0x0, symName: __ZNKSt3__117__compressed_pairImNS_9allocatorINS_12basic_stringIcNS_11char_traitsIcEENS1_IcEEEEEEE5firstB8ue170006Ev, symObjAddr: 0x1488, symBinAddr: 0x100004A3C, symSize: 0x24 }
  - { offsetInCU: 0xEA4F, offset: 0xEA4F, size: 0x8, addend: 0x0, symName: __ZNKSt3__122__compressed_pair_elemImLi0ELb0EE5__getB8ue170006Ev, symObjAddr: 0x14AC, symBinAddr: 0x100004A60, symSize: 0x14 }
  - { offsetInCU: 0xEA75, offset: 0xEA75, size: 0x8, addend: 0x0, symName: __ZNSt3__19allocatorINS_12basic_stringIcNS_11char_traitsIcEENS0_IcEEEEE7destroyB8ue170006EPS5_, symObjAddr: 0x14F0, symBinAddr: 0x100004AA4, symSize: 0x28 }
  - { offsetInCU: 0xEAA9, offset: 0xEAA9, size: 0x8, addend: 0x0, symName: __ZNSt3__117__compressed_pairImNS_9allocatorINS_12basic_stringIcNS_11char_traitsIcEENS1_IcEEEEEEE5firstB8ue170006Ev, symObjAddr: 0x1518, symBinAddr: 0x100004ACC, symSize: 0x24 }
  - { offsetInCU: 0xEACF, offset: 0xEACF, size: 0x8, addend: 0x0, symName: __ZNSt3__122__compressed_pair_elemImLi0ELb0EE5__getB8ue170006Ev, symObjAddr: 0x153C, symBinAddr: 0x100004AF0, symSize: 0x14 }
  - { offsetInCU: 0xEAF5, offset: 0xEAF5, size: 0x8, addend: 0x0, symName: __ZNSt3__114__split_bufferIPNS_12basic_stringIcNS_11char_traitsIcEENS_9allocatorIcEEEENS4_IS7_EEE19__destruct_at_beginB8ue170006EPS7_, symObjAddr: 0x1550, symBinAddr: 0x100004B04, symSize: 0x2C }
  - { offsetInCU: 0xEB29, offset: 0xEB29, size: 0x8, addend: 0x0, symName: __ZNSt3__114__split_bufferIPNS_12basic_stringIcNS_11char_traitsIcEENS_9allocatorIcEEEENS4_IS7_EEE19__destruct_at_beginEPS7_NS_17integral_constantIbLb1EEE, symObjAddr: 0x157C, symBinAddr: 0x100004B30, symSize: 0x20 }
  - { offsetInCU: 0xEB69, offset: 0xEB69, size: 0x8, addend: 0x0, symName: __ZNKSt3__15dequeINS_12basic_stringIcNS_11char_traitsIcEENS_9allocatorIcEEEENS4_IS6_EEE18__annotate_from_toB8ue170006EmmNS8_22__asan_annotation_typeENS8_23__asan_annotation_placeE, symObjAddr: 0x159C, symBinAddr: 0x100004B50, symSize: 0x598 }
  - { offsetInCU: 0xED25, offset: 0xED25, size: 0x8, addend: 0x0, symName: __ZNKSt3__114__split_bufferIPNS_12basic_stringIcNS_11char_traitsIcEENS_9allocatorIcEEEENS4_IS7_EEE5beginB8ue170006Ev, symObjAddr: 0x1B34, symBinAddr: 0x1000050E8, symSize: 0x18 }
  - { offsetInCU: 0xED4B, offset: 0xED4B, size: 0x8, addend: 0x0, symName: __ZNKSt3__15dequeINS_12basic_stringIcNS_11char_traitsIcEENS_9allocatorIcEEEENS4_IS6_EEE5emptyB8ue170006Ev, symObjAddr: 0x1B4C, symBinAddr: 0x100005100, symSize: 0x30 }
  - { offsetInCU: 0xED71, offset: 0xED71, size: 0x8, addend: 0x0, symName: __ZNKSt3__15dequeINS_12basic_stringIcNS_11char_traitsIcEENS_9allocatorIcEEEENS4_IS6_EEE44__annotate_double_ended_contiguous_containerB8ue170006EPKvSA_SA_SA_SA_SA_, symObjAddr: 0x1B90, symBinAddr: 0x100005144, symSize: 0x28 }
  - { offsetInCU: 0xEDDF, offset: 0xEDDF, size: 0x8, addend: 0x0, symName: __ZNKSt3__15dequeINS_12basic_stringIcNS_11char_traitsIcEENS_9allocatorIcEEEENS4_IS6_EEE22__annotate_whole_blockB8ue170006EmNS8_22__asan_annotation_typeE, symObjAddr: 0x1BB8, symBinAddr: 0x10000516C, symSize: 0xAC }
  - { offsetInCU: 0xEE50, offset: 0xEE50, size: 0x8, addend: 0x0, symName: __ZNKSt3__15dequeINS_12basic_stringIcNS_11char_traitsIcEENS_9allocatorIcEEEENS4_IS6_EEE23__annotate_poison_blockB8ue170006EPKvSA_, symObjAddr: 0x1C64, symBinAddr: 0x100005218, symSize: 0x44 }
  - { offsetInCU: 0xEE94, offset: 0xEE94, size: 0x8, addend: 0x0, symName: __ZNSt3__19allocatorINS_12basic_stringIcNS_11char_traitsIcEENS0_IcEEEEE10deallocateB8ue170006EPS5_m, symObjAddr: 0x1CA8, symBinAddr: 0x10000525C, symSize: 0x74 }
  - { offsetInCU: 0xEED6, offset: 0xEED6, size: 0x8, addend: 0x0, symName: __ZNSt3__117__compressed_pairImNS_9allocatorINS_12basic_stringIcNS_11char_traitsIcEENS1_IcEEEEEEE6secondB8ue170006Ev, symObjAddr: 0x1DA4, symBinAddr: 0x100005358, symSize: 0x24 }
  - { offsetInCU: 0xEEFC, offset: 0xEEFC, size: 0x8, addend: 0x0, symName: __ZNSt3__122__compressed_pair_elemINS_9allocatorINS_12basic_stringIcNS_11char_traitsIcEENS1_IcEEEEEELi1ELb1EE5__getB8ue170006Ev, symObjAddr: 0x1DC8, symBinAddr: 0x10000537C, symSize: 0x14 }
  - { offsetInCU: 0xEF22, offset: 0xEF22, size: 0x8, addend: 0x0, symName: __ZNSt3__114__split_bufferIPNS_12basic_stringIcNS_11char_traitsIcEENS_9allocatorIcEEEENS4_IS7_EEED2Ev, symObjAddr: 0x1DDC, symBinAddr: 0x100005390, symSize: 0x80 }
  - { offsetInCU: 0xEF4E, offset: 0xEF4E, size: 0x8, addend: 0x0, symName: __ZNSt3__114__split_bufferIPNS_12basic_stringIcNS_11char_traitsIcEENS_9allocatorIcEEEENS4_IS7_EEE5clearB8ue170006Ev, symObjAddr: 0x1E5C, symBinAddr: 0x100005410, symSize: 0x28 }
  - { offsetInCU: 0xEF74, offset: 0xEF74, size: 0x8, addend: 0x0, symName: __ZNSt3__116allocator_traitsINS_9allocatorIPNS_12basic_stringIcNS_11char_traitsIcEENS1_IcEEEEEEE10deallocateB8ue170006ERS8_PS7_m, symObjAddr: 0x1E84, symBinAddr: 0x100005438, symSize: 0x34 }
  - { offsetInCU: 0xEFB6, offset: 0xEFB6, size: 0x8, addend: 0x0, symName: __ZNSt3__114__split_bufferIPNS_12basic_stringIcNS_11char_traitsIcEENS_9allocatorIcEEEENS4_IS7_EEE7__allocB8ue170006Ev, symObjAddr: 0x1EB8, symBinAddr: 0x10000546C, symSize: 0x28 }
  - { offsetInCU: 0xEFDC, offset: 0xEFDC, size: 0x8, addend: 0x0, symName: __ZNKSt3__114__split_bufferIPNS_12basic_stringIcNS_11char_traitsIcEENS_9allocatorIcEEEENS4_IS7_EEE8capacityB8ue170006Ev, symObjAddr: 0x1EE0, symBinAddr: 0x100005494, symSize: 0x40 }
  - { offsetInCU: 0xF002, offset: 0xF002, size: 0x8, addend: 0x0, symName: __ZNSt3__114__split_bufferIPNS_12basic_stringIcNS_11char_traitsIcEENS_9allocatorIcEEEENS4_IS7_EEE17__destruct_at_endB8ue170006EPS7_, symObjAddr: 0x1F20, symBinAddr: 0x1000054D4, symSize: 0x2C }
  - { offsetInCU: 0xF036, offset: 0xF036, size: 0x8, addend: 0x0, symName: __ZNSt3__114__split_bufferIPNS_12basic_stringIcNS_11char_traitsIcEENS_9allocatorIcEEEENS4_IS7_EEE17__destruct_at_endB8ue170006EPS7_NS_17integral_constantIbLb0EEE, symObjAddr: 0x1F4C, symBinAddr: 0x100005500, symSize: 0x94 }
  - { offsetInCU: 0xF076, offset: 0xF076, size: 0x8, addend: 0x0, symName: __ZNSt3__116allocator_traitsINS_9allocatorIPNS_12basic_stringIcNS_11char_traitsIcEENS1_IcEEEEEEE7destroyB8ue170006IS7_vEEvRS8_PT_, symObjAddr: 0x1FE0, symBinAddr: 0x100005594, symSize: 0x2C }
  - { offsetInCU: 0xF0B3, offset: 0xF0B3, size: 0x8, addend: 0x0, symName: __ZNSt3__19allocatorIPNS_12basic_stringIcNS_11char_traitsIcEENS0_IcEEEEE7destroyB8ue170006EPS6_, symObjAddr: 0x2020, symBinAddr: 0x1000055D4, symSize: 0x14 }
  - { offsetInCU: 0xF0E7, offset: 0xF0E7, size: 0x8, addend: 0x0, symName: __ZNSt3__19allocatorIPNS_12basic_stringIcNS_11char_traitsIcEENS0_IcEEEEE10deallocateB8ue170006EPS6_m, symObjAddr: 0x2034, symBinAddr: 0x1000055E8, symSize: 0x70 }
  - { offsetInCU: 0xF129, offset: 0xF129, size: 0x8, addend: 0x0, symName: __ZNSt3__117__compressed_pairIPPNS_12basic_stringIcNS_11char_traitsIcEENS_9allocatorIcEEEENS4_IS7_EEE6secondB8ue170006Ev, symObjAddr: 0x20A4, symBinAddr: 0x100005658, symSize: 0x24 }
  - { offsetInCU: 0xF14F, offset: 0xF14F, size: 0x8, addend: 0x0, symName: __ZNSt3__122__compressed_pair_elemINS_9allocatorIPNS_12basic_stringIcNS_11char_traitsIcEENS1_IcEEEEEELi1ELb1EE5__getB8ue170006Ev, symObjAddr: 0x20C8, symBinAddr: 0x10000567C, symSize: 0x14 }
  - { offsetInCU: 0xF175, offset: 0xF175, size: 0x8, addend: 0x0, symName: __ZNKSt3__114__split_bufferIPNS_12basic_stringIcNS_11char_traitsIcEENS_9allocatorIcEEEENS4_IS7_EEE9__end_capB8ue170006Ev, symObjAddr: 0x20DC, symBinAddr: 0x100005690, symSize: 0x28 }
  - { offsetInCU: 0xF19B, offset: 0xF19B, size: 0x8, addend: 0x0, symName: __ZNKSt3__117__compressed_pairIPPNS_12basic_stringIcNS_11char_traitsIcEENS_9allocatorIcEEEENS4_IS7_EEE5firstB8ue170006Ev, symObjAddr: 0x2104, symBinAddr: 0x1000056B8, symSize: 0x24 }
  - { offsetInCU: 0xF1C1, offset: 0xF1C1, size: 0x8, addend: 0x0, symName: __ZNKSt3__122__compressed_pair_elemIPPNS_12basic_stringIcNS_11char_traitsIcEENS_9allocatorIcEEEELi0ELb0EE5__getB8ue170006Ev, symObjAddr: 0x2128, symBinAddr: 0x1000056DC, symSize: 0x14 }
  - { offsetInCU: 0xF1E7, offset: 0xF1E7, size: 0x8, addend: 0x0, symName: __ZNSt3__112basic_stringIcNS_11char_traitsIcEENS_9allocatorIcEEEC2B8ue170006Ev, symObjAddr: 0x213C, symBinAddr: 0x1000056F0, symSize: 0x3C }
  - { offsetInCU: 0xF216, offset: 0xF216, size: 0x8, addend: 0x0, symName: __ZNSt3__117__compressed_pairINS_12basic_stringIcNS_11char_traitsIcEENS_9allocatorIcEEE5__repES5_EC1B8ue170006INS_18__default_init_tagESA_EEOT_OT0_, symObjAddr: 0x2178, symBinAddr: 0x10000572C, symSize: 0x3C }
  - { offsetInCU: 0xF26E, offset: 0xF26E, size: 0x8, addend: 0x0, symName: __ZNSt3__112basic_stringIcNS_11char_traitsIcEENS_9allocatorIcEEE14__default_initB8ue170006Ev, symObjAddr: 0x21B4, symBinAddr: 0x100005768, symSize: 0xB0 }
  - { offsetInCU: 0xF2C0, offset: 0xF2C0, size: 0x8, addend: 0x0, symName: __ZNSt3__117__compressed_pairINS_12basic_stringIcNS_11char_traitsIcEENS_9allocatorIcEEE5__repES5_EC2B8ue170006INS_18__default_init_tagESA_EEOT_OT0_, symObjAddr: 0x2264, symBinAddr: 0x100005818, symSize: 0x3C }
  - { offsetInCU: 0xF318, offset: 0xF318, size: 0x8, addend: 0x0, symName: __ZNSt3__122__compressed_pair_elemINS_12basic_stringIcNS_11char_traitsIcEENS_9allocatorIcEEE5__repELi0ELb0EEC2B8ue170006ENS_18__default_init_tagE, symObjAddr: 0x22A0, symBinAddr: 0x100005854, symSize: 0x14 }
  - { offsetInCU: 0xF34C, offset: 0xF34C, size: 0x8, addend: 0x0, symName: __ZNSt3__122__compressed_pair_elemINS_9allocatorIcEELi1ELb1EEC2B8ue170006ENS_18__default_init_tagE, symObjAddr: 0x22B4, symBinAddr: 0x100005868, symSize: 0x2C }
  - { offsetInCU: 0xF380, offset: 0xF380, size: 0x8, addend: 0x0, symName: __ZNSt3__19allocatorIcEC2B8ue170006Ev, symObjAddr: 0x22E0, symBinAddr: 0x100005894, symSize: 0x2C }
  - { offsetInCU: 0xF3AA, offset: 0xF3AA, size: 0x8, addend: 0x0, symName: __ZNSt3__116__non_trivial_ifILb1ENS_9allocatorIcEEEC2B8ue170006Ev, symObjAddr: 0x230C, symBinAddr: 0x1000058C0, symSize: 0x14 }
  - { offsetInCU: 0xF3D4, offset: 0xF3D4, size: 0x8, addend: 0x0, symName: __ZNSt3__117__compressed_pairINS_12basic_stringIcNS_11char_traitsIcEENS_9allocatorIcEEE5__repES5_E5firstB8ue170006Ev, symObjAddr: 0x2320, symBinAddr: 0x1000058D4, symSize: 0x24 }
  - { offsetInCU: 0xF3FA, offset: 0xF3FA, size: 0x8, addend: 0x0, symName: __ZNSt3__112basic_stringIcNS_11char_traitsIcEENS_9allocatorIcEEE11__recommendB8ue170006Em, symObjAddr: 0x2344, symBinAddr: 0x1000058F8, symSize: 0x9C }
  - { offsetInCU: 0xF42D, offset: 0xF42D, size: 0x8, addend: 0x0, symName: __ZNSt3__116allocator_traitsINS_9allocatorIcEEE8allocateB8ue170006ERS2_m, symObjAddr: 0x23E0, symBinAddr: 0x100005994, symSize: 0x2C }
  - { offsetInCU: 0xF460, offset: 0xF460, size: 0x8, addend: 0x0, symName: __ZNSt3__112basic_stringIcNS_11char_traitsIcEENS_9allocatorIcEEE7__allocB8ue170006Ev, symObjAddr: 0x240C, symBinAddr: 0x1000059C0, symSize: 0x24 }
  - { offsetInCU: 0xF486, offset: 0xF486, size: 0x8, addend: 0x0, symName: __ZNSt3__112basic_stringIcNS_11char_traitsIcEENS_9allocatorIcEEE16__begin_lifetimeB8ue170006EPcm, symObjAddr: 0x2430, symBinAddr: 0x1000059E4, symSize: 0x14 }
  - { offsetInCU: 0xF4B9, offset: 0xF4B9, size: 0x8, addend: 0x0, symName: __ZNSt3__112basic_stringIcNS_11char_traitsIcEENS_9allocatorIcEEE18__set_long_pointerB8ue170006EPc, symObjAddr: 0x2444, symBinAddr: 0x1000059F8, symSize: 0x38 }
  - { offsetInCU: 0xF4EE, offset: 0xF4EE, size: 0x8, addend: 0x0, symName: __ZNSt3__112basic_stringIcNS_11char_traitsIcEENS_9allocatorIcEEE14__set_long_capB8ue170006Em, symObjAddr: 0x247C, symBinAddr: 0x100005A30, symSize: 0x70 }
  - { offsetInCU: 0xF523, offset: 0xF523, size: 0x8, addend: 0x0, symName: __ZNSt3__112basic_stringIcNS_11char_traitsIcEENS_9allocatorIcEEE15__set_long_sizeB8ue170006Em, symObjAddr: 0x24EC, symBinAddr: 0x100005AA0, symSize: 0x38 }
  - { offsetInCU: 0xF558, offset: 0xF558, size: 0x8, addend: 0x0, symName: __ZNSt3__122__compressed_pair_elemINS_12basic_stringIcNS_11char_traitsIcEENS_9allocatorIcEEE5__repELi0ELb0EE5__getB8ue170006Ev, symObjAddr: 0x2524, symBinAddr: 0x100005AD8, symSize: 0x14 }
  - { offsetInCU: 0xF57E, offset: 0xF57E, size: 0x8, addend: 0x0, symName: __ZNSt3__112basic_stringIcNS_11char_traitsIcEENS_9allocatorIcEEE10__align_itB8ue170006ILm16EEEmm, symObjAddr: 0x2538, symBinAddr: 0x100005AEC, symSize: 0x1C }
  - { offsetInCU: 0xF5AC, offset: 0xF5AC, size: 0x8, addend: 0x0, symName: __ZNSt3__19allocatorIcE8allocateB8ue170006Em, symObjAddr: 0x2554, symBinAddr: 0x100005B08, symSize: 0x84 }
  - { offsetInCU: 0xF5EA, offset: 0xF5EA, size: 0x8, addend: 0x0, symName: __ZNSt3__116allocator_traitsINS_9allocatorIcEEE8max_sizeB8ue170006IS2_vEEmRKS2_, symObjAddr: 0x25D8, symBinAddr: 0x100005B8C, symSize: 0x24 }
  - { offsetInCU: 0xF618, offset: 0xF618, size: 0x8, addend: 0x0, symName: __ZNKSt3__19allocatorIcE8max_sizeB8ue170006Ev, symObjAddr: 0x2658, symBinAddr: 0x100005C0C, symSize: 0x14 }
  - { offsetInCU: 0xF63E, offset: 0xF63E, size: 0x8, addend: 0x0, symName: __ZNSt3__117__compressed_pairINS_12basic_stringIcNS_11char_traitsIcEENS_9allocatorIcEEE5__repES5_E6secondB8ue170006Ev, symObjAddr: 0x2690, symBinAddr: 0x100005C44, symSize: 0x24 }
  - { offsetInCU: 0xF664, offset: 0xF664, size: 0x8, addend: 0x0, symName: __ZNSt3__122__compressed_pair_elemINS_9allocatorIcEELi1ELb1EE5__getB8ue170006Ev, symObjAddr: 0x26B4, symBinAddr: 0x100005C68, symSize: 0x14 }
  - { offsetInCU: 0xF7A7, offset: 0xF7A7, size: 0x8, addend: 0x0, symName: __ZNKSt3__113basic_istreamIcNS_11char_traitsIcEEE6sentrycvbB8ue170006Ev, symObjAddr: 0x26C8, symBinAddr: 0x100005C7C, symSize: 0x1C }
  - { offsetInCU: 0xF7CD, offset: 0xF7CD, size: 0x8, addend: 0x0, symName: __ZNSt3__112basic_stringIcNS_11char_traitsIcEENS_9allocatorIcEEE5clearB8ue170006Ev, symObjAddr: 0x26E4, symBinAddr: 0x100005C98, symSize: 0x78 }
  - { offsetInCU: 0xF7F5, offset: 0xF7F5, size: 0x8, addend: 0x0, symName: __ZNKSt3__18ios_base5widthB8ue170006Ev, symObjAddr: 0x275C, symBinAddr: 0x100005D10, symSize: 0x18 }
  - { offsetInCU: 0xF81D, offset: 0xF81D, size: 0x8, addend: 0x0, symName: __ZNKSt3__112basic_stringIcNS_11char_traitsIcEENS_9allocatorIcEEE8max_sizeB8ue170006Ev, symObjAddr: 0x2774, symBinAddr: 0x100005D28, symSize: 0xAC }
  - { offsetInCU: 0xF86F, offset: 0xF86F, size: 0x8, addend: 0x0, symName: __ZNSt3__114numeric_limitsIlE3maxB8ue170006Ev, symObjAddr: 0x2820, symBinAddr: 0x100005DD4, symSize: 0x14 }
  - { offsetInCU: 0xF883, offset: 0xF883, size: 0x8, addend: 0x0, symName: __ZNKSt3__19basic_iosIcNS_11char_traitsIcEEE5rdbufB8ue170006Ev, symObjAddr: 0x2860, symBinAddr: 0x100005E14, symSize: 0x24 }
  - { offsetInCU: 0xF8AB, offset: 0xF8AB, size: 0x8, addend: 0x0, symName: __ZNSt3__115basic_streambufIcNS_11char_traitsIcEEE5sgetcB8ue170006Ev, symObjAddr: 0x2884, symBinAddr: 0x100005E38, symSize: 0x70 }
  - { offsetInCU: 0xF8D1, offset: 0xF8D1, size: 0x8, addend: 0x0, symName: __ZNSt3__111char_traitsIcE11eq_int_typeB8ue170006Eii, symObjAddr: 0x28F4, symBinAddr: 0x100005EA8, symSize: 0x28 }
  - { offsetInCU: 0xF904, offset: 0xF904, size: 0x8, addend: 0x0, symName: __ZNSt3__111char_traitsIcE3eofB8ue170006Ev, symObjAddr: 0x291C, symBinAddr: 0x100005ED0, symSize: 0x8 }
  - { offsetInCU: 0xF918, offset: 0xF918, size: 0x8, addend: 0x0, symName: __ZNSt3__111char_traitsIcE12to_char_typeB8ue170006Ei, symObjAddr: 0x2924, symBinAddr: 0x100005ED8, symSize: 0x18 }
  - { offsetInCU: 0xF963, offset: 0xF963, size: 0x8, addend: 0x0, symName: __ZNKSt3__15ctypeIcE2isB8ue170006Ejc, symObjAddr: 0x293C, symBinAddr: 0x100005EF0, symSize: 0x7C }
  - { offsetInCU: 0xF9A7, offset: 0xF9A7, size: 0x8, addend: 0x0, symName: __ZNSt3__115basic_streambufIcNS_11char_traitsIcEEE6sbumpcB8ue170006Ev, symObjAddr: 0x29B8, symBinAddr: 0x100005F6C, symSize: 0x78 }
  - { offsetInCU: 0xF9CD, offset: 0xF9CD, size: 0x8, addend: 0x0, symName: __ZNSt3__18ios_base5widthB8ue170006El, symObjAddr: 0x2A30, symBinAddr: 0x100005FE4, symSize: 0x2C }
  - { offsetInCU: 0xFA13, offset: 0xFA13, size: 0x8, addend: 0x0, symName: __ZNSt3__18ios_base18__setstate_nothrowB8ue170006Ej, symObjAddr: 0x2A5C, symBinAddr: 0x100006010, symSize: 0x64 }
  - { offsetInCU: 0xFA48, offset: 0xFA48, size: 0x8, addend: 0x0, symName: __ZNKSt3__19basic_iosIcNS_11char_traitsIcEEE10exceptionsB8ue170006Ev, symObjAddr: 0x2AC0, symBinAddr: 0x100006074, symSize: 0x24 }
  - { offsetInCU: 0xFA6E, offset: 0xFA6E, size: 0x8, addend: 0x0, symName: __ZNSt3__19basic_iosIcNS_11char_traitsIcEEE8setstateB8ue170006Ej, symObjAddr: 0x2AE4, symBinAddr: 0x100006098, symSize: 0x2C }
  - { offsetInCU: 0xFAA3, offset: 0xFAA3, size: 0x8, addend: 0x0, symName: __ZNKSt3__112basic_stringIcNS_11char_traitsIcEENS_9allocatorIcEEE9__is_longB8ue170006Ev, symObjAddr: 0x2B10, symBinAddr: 0x1000060C4, symSize: 0x74 }
  - { offsetInCU: 0xFAC9, offset: 0xFAC9, size: 0x8, addend: 0x0, symName: __ZNSt3__111char_traitsIcE6assignB8ue170006ERcRKc, symObjAddr: 0x2B84, symBinAddr: 0x100006138, symSize: 0x24 }
  - { offsetInCU: 0xFAFA, offset: 0xFAFA, size: 0x8, addend: 0x0, symName: __ZNSt3__112basic_stringIcNS_11char_traitsIcEENS_9allocatorIcEEE18__get_long_pointerB8ue170006Ev, symObjAddr: 0x2BA8, symBinAddr: 0x10000615C, symSize: 0x28 }
  - { offsetInCU: 0xFB20, offset: 0xFB20, size: 0x8, addend: 0x0, symName: __ZNSt3__112basic_stringIcNS_11char_traitsIcEENS_9allocatorIcEEE19__get_short_pointerB8ue170006Ev, symObjAddr: 0x2BD0, symBinAddr: 0x100006184, symSize: 0x28 }
  - { offsetInCU: 0xFB46, offset: 0xFB46, size: 0x8, addend: 0x0, symName: __ZNSt3__112basic_stringIcNS_11char_traitsIcEENS_9allocatorIcEEE16__set_short_sizeB8ue170006Em, symObjAddr: 0x2BF8, symBinAddr: 0x1000061AC, symSize: 0x78 }
  - { offsetInCU: 0xFB7B, offset: 0xFB7B, size: 0x8, addend: 0x0, symName: __ZNKSt3__117__compressed_pairINS_12basic_stringIcNS_11char_traitsIcEENS_9allocatorIcEEE5__repES5_E5firstB8ue170006Ev, symObjAddr: 0x2C70, symBinAddr: 0x100006224, symSize: 0x24 }
  - { offsetInCU: 0xFBA1, offset: 0xFBA1, size: 0x8, addend: 0x0, symName: __ZNKSt3__122__compressed_pair_elemINS_12basic_stringIcNS_11char_traitsIcEENS_9allocatorIcEEE5__repELi0ELb0EE5__getB8ue170006Ev, symObjAddr: 0x2C94, symBinAddr: 0x100006248, symSize: 0x14 }
  - { offsetInCU: 0xFBC7, offset: 0xFBC7, size: 0x8, addend: 0x0, symName: __ZNSt3__114pointer_traitsIPcE10pointer_toB8ue170006ERc, symObjAddr: 0x2CA8, symBinAddr: 0x10000625C, symSize: 0x14 }
  - { offsetInCU: 0xFBEA, offset: 0xFBEA, size: 0x8, addend: 0x0, symName: __ZNKSt3__112basic_stringIcNS_11char_traitsIcEENS_9allocatorIcEEE7__allocB8ue170006Ev, symObjAddr: 0x2CBC, symBinAddr: 0x100006270, symSize: 0x24 }
  - { offsetInCU: 0xFC10, offset: 0xFC10, size: 0x8, addend: 0x0, symName: __ZNSt3__114numeric_limitsImE3maxB8ue170006Ev, symObjAddr: 0x2CE0, symBinAddr: 0x100006294, symSize: 0x14 }
  - { offsetInCU: 0xFC24, offset: 0xFC24, size: 0x8, addend: 0x0, symName: __ZNKSt3__117__compressed_pairINS_12basic_stringIcNS_11char_traitsIcEENS_9allocatorIcEEE5__repES5_E6secondB8ue170006Ev, symObjAddr: 0x2CF4, symBinAddr: 0x1000062A8, symSize: 0x24 }
  - { offsetInCU: 0xFC4A, offset: 0xFC4A, size: 0x8, addend: 0x0, symName: __ZNKSt3__122__compressed_pair_elemINS_9allocatorIcEELi1ELb1EE5__getB8ue170006Ev, symObjAddr: 0x2D18, symBinAddr: 0x1000062CC, symSize: 0x14 }
  - { offsetInCU: 0xFC70, offset: 0xFC70, size: 0x8, addend: 0x0, symName: __ZNSt3__123__libcpp_numeric_limitsImLb1EE3maxB8ue170006Ev, symObjAddr: 0x2D2C, symBinAddr: 0x1000062E0, symSize: 0x8 }
  - { offsetInCU: 0xFC84, offset: 0xFC84, size: 0x8, addend: 0x0, symName: __ZNSt3__123__libcpp_numeric_limitsIlLb1EE3maxB8ue170006Ev, symObjAddr: 0x2D34, symBinAddr: 0x1000062E8, symSize: 0x8 }
  - { offsetInCU: 0xFC98, offset: 0xFC98, size: 0x8, addend: 0x0, symName: __ZNKSt3__18ios_base5rdbufB8ue170006Ev, symObjAddr: 0x2D3C, symBinAddr: 0x1000062F0, symSize: 0x18 }
  - { offsetInCU: 0xFCBE, offset: 0xFCBE, size: 0x8, addend: 0x0, symName: __ZNSt3__111char_traitsIcE11to_int_typeB8ue170006Ec, symObjAddr: 0x2D54, symBinAddr: 0x100006308, symSize: 0x14 }
  - { offsetInCU: 0xFCE1, offset: 0xFCE1, size: 0x8, addend: 0x0, symName: __Z7isasciii, symObjAddr: 0x2D68, symBinAddr: 0x10000631C, symSize: 0x24 }
  - { offsetInCU: 0xFD0E, offset: 0xFD0E, size: 0x8, addend: 0x0, symName: __ZNKSt3__18ios_base10exceptionsB8ue170006Ev, symObjAddr: 0x2D8C, symBinAddr: 0x100006340, symSize: 0x18 }
  - { offsetInCU: 0xFD36, offset: 0xFD36, size: 0x8, addend: 0x0, symName: __ZNSt3__18ios_base8setstateB8ue170006Ej, symObjAddr: 0x2DA4, symBinAddr: 0x100006358, symSize: 0x34 }
  - { offsetInCU: 0xFD6D, offset: 0xFD6D, size: 0x8, addend: 0x0, symName: __ZNSt3__15queueINS_12basic_stringIcNS_11char_traitsIcEENS_9allocatorIcEEEENS_5dequeIS6_NS4_IS6_EEEEEC2B8ue170006Ev, symObjAddr: 0x2DD8, symBinAddr: 0x10000638C, symSize: 0x2C }
  - { offsetInCU: 0xFD97, offset: 0xFD97, size: 0x8, addend: 0x0, symName: __ZNSt3__15dequeINS_12basic_stringIcNS_11char_traitsIcEENS_9allocatorIcEEEENS4_IS6_EEEC1B8ue170006Ev, symObjAddr: 0x2E04, symBinAddr: 0x1000063B8, symSize: 0x2C }
  - { offsetInCU: 0xFDC1, offset: 0xFDC1, size: 0x8, addend: 0x0, symName: __ZNSt3__15dequeINS_12basic_stringIcNS_11char_traitsIcEENS_9allocatorIcEEEENS4_IS6_EEEC2B8ue170006Ev, symObjAddr: 0x2E30, symBinAddr: 0x1000063E4, symSize: 0x84 }
  - { offsetInCU: 0xFDEB, offset: 0xFDEB, size: 0x8, addend: 0x0, symName: __ZNSt3__114__split_bufferIPNS_12basic_stringIcNS_11char_traitsIcEENS_9allocatorIcEEEENS4_IS7_EEEC1B8ue170006Ev, symObjAddr: 0x2EB4, symBinAddr: 0x100006468, symSize: 0x2C }
  - { offsetInCU: 0xFE1A, offset: 0xFE1A, size: 0x8, addend: 0x0, symName: __ZNSt3__117__compressed_pairImNS_9allocatorINS_12basic_stringIcNS_11char_traitsIcEENS1_IcEEEEEEEC1B8ue170006IiNS_18__default_init_tagEEEOT_OT0_, symObjAddr: 0x2EE0, symBinAddr: 0x100006494, symSize: 0x3C }
  - { offsetInCU: 0xFE72, offset: 0xFE72, size: 0x8, addend: 0x0, symName: __ZNSt3__114__split_bufferIPNS_12basic_stringIcNS_11char_traitsIcEENS_9allocatorIcEEEENS4_IS7_EEEC2B8ue170006Ev, symObjAddr: 0x2F1C, symBinAddr: 0x1000064D0, symSize: 0x48 }
  - { offsetInCU: 0xFEA1, offset: 0xFEA1, size: 0x8, addend: 0x0, symName: __ZNSt3__117__compressed_pairIPPNS_12basic_stringIcNS_11char_traitsIcEENS_9allocatorIcEEEENS4_IS7_EEEC1B8ue170006IDnNS_18__default_init_tagEEEOT_OT0_, symObjAddr: 0x2F64, symBinAddr: 0x100006518, symSize: 0x3C }
  - { offsetInCU: 0xFEF9, offset: 0xFEF9, size: 0x8, addend: 0x0, symName: __ZNSt3__117__compressed_pairIPPNS_12basic_stringIcNS_11char_traitsIcEENS_9allocatorIcEEEENS4_IS7_EEEC2B8ue170006IDnNS_18__default_init_tagEEEOT_OT0_, symObjAddr: 0x2FA0, symBinAddr: 0x100006554, symSize: 0x40 }
  - { offsetInCU: 0xFF51, offset: 0xFF51, size: 0x8, addend: 0x0, symName: __ZNSt3__122__compressed_pair_elemIPPNS_12basic_stringIcNS_11char_traitsIcEENS_9allocatorIcEEEELi0ELb0EEC2B8ue170006IDnvEEOT_, symObjAddr: 0x2FE0, symBinAddr: 0x100006594, symSize: 0x1C }
  - { offsetInCU: 0xFF93, offset: 0xFF93, size: 0x8, addend: 0x0, symName: __ZNSt3__122__compressed_pair_elemINS_9allocatorIPNS_12basic_stringIcNS_11char_traitsIcEENS1_IcEEEEEELi1ELb1EEC2B8ue170006ENS_18__default_init_tagE, symObjAddr: 0x2FFC, symBinAddr: 0x1000065B0, symSize: 0x2C }
  - { offsetInCU: 0xFFC7, offset: 0xFFC7, size: 0x8, addend: 0x0, symName: __ZNSt3__19allocatorIPNS_12basic_stringIcNS_11char_traitsIcEENS0_IcEEEEEC2B8ue170006Ev, symObjAddr: 0x3028, symBinAddr: 0x1000065DC, symSize: 0x2C }
  - { offsetInCU: 0xFFF1, offset: 0xFFF1, size: 0x8, addend: 0x0, symName: __ZNSt3__116__non_trivial_ifILb1ENS_9allocatorIPNS_12basic_stringIcNS_11char_traitsIcEENS1_IcEEEEEEEC2B8ue170006Ev, symObjAddr: 0x3054, symBinAddr: 0x100006608, symSize: 0x14 }
  - { offsetInCU: 0x1001B, offset: 0x1001B, size: 0x8, addend: 0x0, symName: __ZNSt3__117__compressed_pairImNS_9allocatorINS_12basic_stringIcNS_11char_traitsIcEENS1_IcEEEEEEEC2B8ue170006IiNS_18__default_init_tagEEEOT_OT0_, symObjAddr: 0x3068, symBinAddr: 0x10000661C, symSize: 0x40 }
  - { offsetInCU: 0x10073, offset: 0x10073, size: 0x8, addend: 0x0, symName: __ZNSt3__122__compressed_pair_elemImLi0ELb0EEC2B8ue170006IivEEOT_, symObjAddr: 0x30A8, symBinAddr: 0x10000665C, symSize: 0x24 }
  - { offsetInCU: 0x100B5, offset: 0x100B5, size: 0x8, addend: 0x0, symName: __ZNSt3__122__compressed_pair_elemINS_9allocatorINS_12basic_stringIcNS_11char_traitsIcEENS1_IcEEEEEELi1ELb1EEC2B8ue170006ENS_18__default_init_tagE, symObjAddr: 0x30CC, symBinAddr: 0x100006680, symSize: 0x2C }
  - { offsetInCU: 0x100E9, offset: 0x100E9, size: 0x8, addend: 0x0, symName: __ZNSt3__19allocatorINS_12basic_stringIcNS_11char_traitsIcEENS0_IcEEEEEC2B8ue170006Ev, symObjAddr: 0x30F8, symBinAddr: 0x1000066AC, symSize: 0x2C }
  - { offsetInCU: 0x10113, offset: 0x10113, size: 0x8, addend: 0x0, symName: __ZNSt3__116__non_trivial_ifILb1ENS_9allocatorINS_12basic_stringIcNS_11char_traitsIcEENS1_IcEEEEEEEC2B8ue170006Ev, symObjAddr: 0x3124, symBinAddr: 0x1000066D8, symSize: 0x14 }
  - { offsetInCU: 0x1013D, offset: 0x1013D, size: 0x8, addend: 0x0, symName: __ZNSt3__15dequeINS_12basic_stringIcNS_11char_traitsIcEENS_9allocatorIcEEEENS4_IS6_EEE9push_backERKS6_, symObjAddr: 0x3138, symBinAddr: 0x1000066EC, symSize: 0xAC }
  - { offsetInCU: 0x10183, offset: 0x10183, size: 0x8, addend: 0x0, symName: __ZNKSt3__15dequeINS_12basic_stringIcNS_11char_traitsIcEENS_9allocatorIcEEEENS4_IS6_EEE12__back_spareB8ue170006Ev, symObjAddr: 0x31E4, symBinAddr: 0x100006798, symSize: 0x54 }
  - { offsetInCU: 0x101A9, offset: 0x101A9, size: 0x8, addend: 0x0, symName: __ZNSt3__15dequeINS_12basic_stringIcNS_11char_traitsIcEENS_9allocatorIcEEEENS4_IS6_EEE19__add_back_capacityEv, symObjAddr: 0x3238, symBinAddr: 0x1000067EC, symSize: 0x364 }
  - { offsetInCU: 0x1025E, offset: 0x1025E, size: 0x8, addend: 0x0, symName: __ZNKSt3__15dequeINS_12basic_stringIcNS_11char_traitsIcEENS_9allocatorIcEEEENS4_IS6_EEE24__annotate_increase_backB8ue170006Em, symObjAddr: 0x359C, symBinAddr: 0x100006B50, symSize: 0x7C }
  - { offsetInCU: 0x10293, offset: 0x10293, size: 0x8, addend: 0x0, symName: __ZNSt3__116allocator_traitsINS_9allocatorINS_12basic_stringIcNS_11char_traitsIcEENS1_IcEEEEEEE9constructB8ue170006IS6_JRKS6_EvEEvRS7_PT_DpOT0_, symObjAddr: 0x3618, symBinAddr: 0x100006BCC, symSize: 0x34 }
  - { offsetInCU: 0x102EA, offset: 0x102EA, size: 0x8, addend: 0x0, symName: __ZNKSt3__15dequeINS_12basic_stringIcNS_11char_traitsIcEENS_9allocatorIcEEEENS4_IS6_EEE10__capacityB8ue170006Ev, symObjAddr: 0x364C, symBinAddr: 0x100006C00, symSize: 0x64 }
  - { offsetInCU: 0x10310, offset: 0x10310, size: 0x8, addend: 0x0, symName: __ZNKSt3__15dequeINS_12basic_stringIcNS_11char_traitsIcEENS_9allocatorIcEEEENS4_IS6_EEE13__front_spareB8ue170006Ev, symObjAddr: 0x36B0, symBinAddr: 0x100006C64, symSize: 0x18 }
  - { offsetInCU: 0x10336, offset: 0x10336, size: 0x8, addend: 0x0, symName: __ZNSt3__114__split_bufferIPNS_12basic_stringIcNS_11char_traitsIcEENS_9allocatorIcEEEENS4_IS7_EEE9push_backB8ue170006ERKS7_, symObjAddr: 0x36C8, symBinAddr: 0x100006C7C, symSize: 0x270 }
  - { offsetInCU: 0x103AE, offset: 0x103AE, size: 0x8, addend: 0x0, symName: __ZNKSt3__114__split_bufferIPNS_12basic_stringIcNS_11char_traitsIcEENS_9allocatorIcEEEENS4_IS7_EEE12__back_spareB8ue170006Ev, symObjAddr: 0x3938, symBinAddr: 0x100006EEC, symSize: 0x40 }
  - { offsetInCU: 0x103D4, offset: 0x103D4, size: 0x8, addend: 0x0, symName: __ZNSt3__114__split_bufferIPNS_12basic_stringIcNS_11char_traitsIcEENS_9allocatorIcEEEENS4_IS7_EEE9push_backEOS7_, symObjAddr: 0x3978, symBinAddr: 0x100006F2C, symSize: 0x270 }
  - { offsetInCU: 0x1044C, offset: 0x1044C, size: 0x8, addend: 0x0, symName: __ZNSt3__116allocator_traitsINS_9allocatorINS_12basic_stringIcNS_11char_traitsIcEENS1_IcEEEEEEE8allocateB8ue170006ERS7_m, symObjAddr: 0x3BE8, symBinAddr: 0x10000719C, symSize: 0x2C }
  - { offsetInCU: 0x1047F, offset: 0x1047F, size: 0x8, addend: 0x0, symName: __ZNSt3__114__split_bufferIPNS_12basic_stringIcNS_11char_traitsIcEENS_9allocatorIcEEEENS4_IS7_EEE10push_frontEOS7_, symObjAddr: 0x3C14, symBinAddr: 0x1000071C8, symSize: 0x26C }
  - { offsetInCU: 0x104F7, offset: 0x104F7, size: 0x8, addend: 0x0, symName: __ZNSt3__114__split_bufferIPNS_12basic_stringIcNS_11char_traitsIcEENS_9allocatorIcEEEERNS4_IS7_EEEC1EmmS9_, symObjAddr: 0x3EAC, symBinAddr: 0x100007460, symSize: 0x44 }
  - { offsetInCU: 0x10552, offset: 0x10552, size: 0x8, addend: 0x0, symName: __ZNSt3__122__allocator_destructorINS_9allocatorINS_12basic_stringIcNS_11char_traitsIcEENS1_IcEEEEEEEC1B8ue170006ERS7_m, symObjAddr: 0x3EF0, symBinAddr: 0x1000074A4, symSize: 0x3C }
  - { offsetInCU: 0x1061F, offset: 0x1061F, size: 0x8, addend: 0x0, symName: __ZNSt3__110unique_ptrIPNS_12basic_stringIcNS_11char_traitsIcEENS_9allocatorIcEEEENS_22__allocator_destructorINS4_IS6_EEEEEC1B8ue170006ILb1EvEES7_NS_16__dependent_typeINS_27__unique_ptr_deleter_sfinaeISA_EEXT_EE20__good_rval_ref_typeE, symObjAddr: 0x3F2C, symBinAddr: 0x1000074E0, symSize: 0x3C }
  - { offsetInCU: 0x10670, offset: 0x10670, size: 0x8, addend: 0x0, symName: __ZNSt3__114__split_bufferIPNS_12basic_stringIcNS_11char_traitsIcEENS_9allocatorIcEEEERNS4_IS7_EEE9push_backEOS7_, symObjAddr: 0x3F68, symBinAddr: 0x10000751C, symSize: 0x270 }
  - { offsetInCU: 0x106E8, offset: 0x106E8, size: 0x8, addend: 0x0, symName: __ZNKSt3__110unique_ptrIPNS_12basic_stringIcNS_11char_traitsIcEENS_9allocatorIcEEEENS_22__allocator_destructorINS4_IS6_EEEEE3getB8ue170006Ev, symObjAddr: 0x41D8, symBinAddr: 0x10000778C, symSize: 0x28 }
  - { offsetInCU: 0x1070E, offset: 0x1070E, size: 0x8, addend: 0x0, symName: __ZNSt3__110unique_ptrIPNS_12basic_stringIcNS_11char_traitsIcEENS_9allocatorIcEEEENS_22__allocator_destructorINS4_IS6_EEEEE7releaseB8ue170006Ev, symObjAddr: 0x4200, symBinAddr: 0x1000077B4, symSize: 0x44 }
  - { offsetInCU: 0x10743, offset: 0x10743, size: 0x8, addend: 0x0, symName: __ZNSt3__114__split_bufferIPNS_12basic_stringIcNS_11char_traitsIcEENS_9allocatorIcEEEERNS4_IS7_EEE10push_frontERKS7_, symObjAddr: 0x4244, symBinAddr: 0x1000077F8, symSize: 0x26C }
  - { offsetInCU: 0x107BB, offset: 0x107BB, size: 0x8, addend: 0x0, symName: __ZNSt3__114__split_bufferIPNS_12basic_stringIcNS_11char_traitsIcEENS_9allocatorIcEEEENS4_IS7_EEE9__end_capB8ue170006Ev, symObjAddr: 0x44EC, symBinAddr: 0x100007AA0, symSize: 0x28 }
  - { offsetInCU: 0x107E1, offset: 0x107E1, size: 0x8, addend: 0x0, symName: __ZNSt3__114__split_bufferIPNS_12basic_stringIcNS_11char_traitsIcEENS_9allocatorIcEEEERNS4_IS7_EEE9__end_capB8ue170006Ev, symObjAddr: 0x4514, symBinAddr: 0x100007AC8, symSize: 0x28 }
  - { offsetInCU: 0x10807, offset: 0x10807, size: 0x8, addend: 0x0, symName: __ZNSt3__110unique_ptrIPNS_12basic_stringIcNS_11char_traitsIcEENS_9allocatorIcEEEENS_22__allocator_destructorINS4_IS6_EEEEED1B8ue170006Ev, symObjAddr: 0x453C, symBinAddr: 0x100007AF0, symSize: 0x2C }
  - { offsetInCU: 0x10831, offset: 0x10831, size: 0x8, addend: 0x0, symName: __ZNSt3__114__split_bufferIPNS_12basic_stringIcNS_11char_traitsIcEENS_9allocatorIcEEEERNS4_IS7_EEED1Ev, symObjAddr: 0x4568, symBinAddr: 0x100007B1C, symSize: 0x2C }
  - { offsetInCU: 0x1085D, offset: 0x1085D, size: 0x8, addend: 0x0, symName: __ZNSt3__114__split_bufferIPNS_12basic_stringIcNS_11char_traitsIcEENS_9allocatorIcEEEERNS4_IS7_EEE18__construct_at_endINS_13move_iteratorIPS7_EEEENS_9enable_ifIXsr31__has_forward_iterator_categoryIT_EE5valueEvE4typeESG_SG_, symObjAddr: 0x45D4, symBinAddr: 0x100007B88, symSize: 0x60 }
  - { offsetInCU: 0x108AA, offset: 0x108AA, size: 0x8, addend: 0x0, symName: __ZNSt3__113move_iteratorIPPNS_12basic_stringIcNS_11char_traitsIcEENS_9allocatorIcEEEEEC1B8ue170006ES8_, symObjAddr: 0x4634, symBinAddr: 0x100007BE8, symSize: 0x34 }
  - { offsetInCU: 0x108E7, offset: 0x108E7, size: 0x8, addend: 0x0, symName: __ZNSt3__116allocator_traitsINS_9allocatorIPNS_12basic_stringIcNS_11char_traitsIcEENS1_IcEEEEEEE9constructB8ue170006IS7_JRKS7_EvEEvRS8_PT_DpOT0_, symObjAddr: 0x4668, symBinAddr: 0x100007C1C, symSize: 0x34 }
  - { offsetInCU: 0x10961, offset: 0x10961, size: 0x8, addend: 0x0, symName: __ZNKSt3__114__move_trivialclB8ue170006IPNS_12basic_stringIcNS_11char_traitsIcEENS_9allocatorIcEEEES8_Li0EEENS_4pairIPT_PT0_EESB_SB_SD_, symObjAddr: 0x4838, symBinAddr: 0x100007DEC, symSize: 0x48 }
  - { offsetInCU: 0x109C9, offset: 0x109C9, size: 0x8, addend: 0x0, symName: __ZNSt3__14pairIPPNS_12basic_stringIcNS_11char_traitsIcEENS_9allocatorIcEEEES8_EC1B8ue170006ERKS8_SB_, symObjAddr: 0x4AB0, symBinAddr: 0x100008064, symSize: 0x3C }
  - { offsetInCU: 0x10A0F, offset: 0x10A0F, size: 0x8, addend: 0x0, symName: __ZNSt3__14pairIPPNS_12basic_stringIcNS_11char_traitsIcEENS_9allocatorIcEEEES8_EC2B8ue170006ERKS8_SB_, symObjAddr: 0x4AEC, symBinAddr: 0x1000080A0, symSize: 0x34 }
  - { offsetInCU: 0x10A55, offset: 0x10A55, size: 0x8, addend: 0x0, symName: __ZNSt3__118__unwrap_iter_implIPPNS_12basic_stringIcNS_11char_traitsIcEENS_9allocatorIcEEEELb1EE8__unwrapB8ue170006ES8_, symObjAddr: 0x4B20, symBinAddr: 0x1000080D4, symSize: 0x24 }
  - { offsetInCU: 0x10A78, offset: 0x10A78, size: 0x8, addend: 0x0, symName: __ZNSt3__118__unwrap_iter_implIPPNS_12basic_stringIcNS_11char_traitsIcEENS_9allocatorIcEEEELb1EE8__rewrapB8ue170006ES8_S8_, symObjAddr: 0x4B44, symBinAddr: 0x1000080F8, symSize: 0x50 }
  - { offsetInCU: 0x10AA9, offset: 0x10AA9, size: 0x8, addend: 0x0, symName: __ZNSt3__114__split_bufferIPNS_12basic_stringIcNS_11char_traitsIcEENS_9allocatorIcEEEERNS4_IS7_EEE28__construct_at_end_with_sizeINS_13move_iteratorIPS7_EEEEvT_m, symObjAddr: 0x4B94, symBinAddr: 0x100008148, symSize: 0xE4 }
  - { offsetInCU: 0x10B0F, offset: 0x10B0F, size: 0x8, addend: 0x0, symName: __ZNSt3__114__split_bufferIPNS_12basic_stringIcNS_11char_traitsIcEENS_9allocatorIcEEEERNS4_IS7_EEE21_ConstructTransactionC1B8ue170006EPPS7_m, symObjAddr: 0x4CB4, symBinAddr: 0x100008268, symSize: 0x3C }
  - { offsetInCU: 0x10B55, offset: 0x10B55, size: 0x8, addend: 0x0, symName: __ZNSt3__116allocator_traitsINS_9allocatorIPNS_12basic_stringIcNS_11char_traitsIcEENS1_IcEEEEEEE9constructB8ue170006IS7_JS7_EvEEvRS8_PT_DpOT0_, symObjAddr: 0x4CF0, symBinAddr: 0x1000082A4, symSize: 0x34 }
  - { offsetInCU: 0x10BAC, offset: 0x10BAC, size: 0x8, addend: 0x0, symName: __ZNSt3__114__split_bufferIPNS_12basic_stringIcNS_11char_traitsIcEENS_9allocatorIcEEEERNS4_IS7_EEE7__allocB8ue170006Ev, symObjAddr: 0x4D24, symBinAddr: 0x1000082D8, symSize: 0x28 }
  - { offsetInCU: 0x10BD2, offset: 0x10BD2, size: 0x8, addend: 0x0, symName: __ZNKSt3__113move_iteratorIPPNS_12basic_stringIcNS_11char_traitsIcEENS_9allocatorIcEEEEEdeB8ue170006Ev, symObjAddr: 0x4D4C, symBinAddr: 0x100008300, symSize: 0x18 }
  - { offsetInCU: 0x10BF8, offset: 0x10BF8, size: 0x8, addend: 0x0, symName: __ZNSt3__113move_iteratorIPPNS_12basic_stringIcNS_11char_traitsIcEENS_9allocatorIcEEEEEppB8ue170006Ev, symObjAddr: 0x4D64, symBinAddr: 0x100008318, symSize: 0x20 }
  - { offsetInCU: 0x10C1E, offset: 0x10C1E, size: 0x8, addend: 0x0, symName: __ZNSt3__114__split_bufferIPNS_12basic_stringIcNS_11char_traitsIcEENS_9allocatorIcEEEERNS4_IS7_EEE21_ConstructTransactionD1B8ue170006Ev, symObjAddr: 0x4D84, symBinAddr: 0x100008338, symSize: 0x2C }
  - { offsetInCU: 0x10C48, offset: 0x10C48, size: 0x8, addend: 0x0, symName: __ZNSt3__114__split_bufferIPNS_12basic_stringIcNS_11char_traitsIcEENS_9allocatorIcEEEERNS4_IS7_EEE21_ConstructTransactionC2B8ue170006EPPS7_m, symObjAddr: 0x4DB0, symBinAddr: 0x100008364, symSize: 0x44 }
  - { offsetInCU: 0x10C8E, offset: 0x10C8E, size: 0x8, addend: 0x0, symName: __ZNSt3__19allocatorIPNS_12basic_stringIcNS_11char_traitsIcEENS0_IcEEEEE9constructB8ue170006IS6_JS6_EEEvPT_DpOT0_, symObjAddr: 0x4DF4, symBinAddr: 0x1000083A8, symSize: 0x28 }
  - { offsetInCU: 0x10CE4, offset: 0x10CE4, size: 0x8, addend: 0x0, symName: __ZNSt3__117__compressed_pairIPPNS_12basic_stringIcNS_11char_traitsIcEENS_9allocatorIcEEEERNS4_IS7_EEE6secondB8ue170006Ev, symObjAddr: 0x4E1C, symBinAddr: 0x1000083D0, symSize: 0x28 }
  - { offsetInCU: 0x10D0A, offset: 0x10D0A, size: 0x8, addend: 0x0, symName: __ZNSt3__122__compressed_pair_elemIRNS_9allocatorIPNS_12basic_stringIcNS_11char_traitsIcEENS1_IcEEEEEELi1ELb0EE5__getB8ue170006Ev, symObjAddr: 0x4E44, symBinAddr: 0x1000083F8, symSize: 0x18 }
  - { offsetInCU: 0x10D30, offset: 0x10D30, size: 0x8, addend: 0x0, symName: __ZNSt3__114__split_bufferIPNS_12basic_stringIcNS_11char_traitsIcEENS_9allocatorIcEEEERNS4_IS7_EEE21_ConstructTransactionD2B8ue170006Ev, symObjAddr: 0x4E5C, symBinAddr: 0x100008410, symSize: 0x20 }
  - { offsetInCU: 0x10D5A, offset: 0x10D5A, size: 0x8, addend: 0x0, symName: __ZNKSt3__113move_iteratorIPPNS_12basic_stringIcNS_11char_traitsIcEENS_9allocatorIcEEEEE4baseB8ue170006Ev, symObjAddr: 0x4EF4, symBinAddr: 0x1000084A8, symSize: 0x18 }
  - { offsetInCU: 0x10D80, offset: 0x10D80, size: 0x8, addend: 0x0, symName: __ZNSt3__113move_iteratorIPPNS_12basic_stringIcNS_11char_traitsIcEENS_9allocatorIcEEEEEC2B8ue170006ES8_, symObjAddr: 0x4F0C, symBinAddr: 0x1000084C0, symSize: 0x20 }
  - { offsetInCU: 0x10DB8, offset: 0x10DB8, size: 0x8, addend: 0x0, symName: __ZNSt3__19allocatorIPNS_12basic_stringIcNS_11char_traitsIcEENS0_IcEEEEE9constructB8ue170006IS6_JRKS6_EEEvPT_DpOT0_, symObjAddr: 0x4F2C, symBinAddr: 0x1000084E0, symSize: 0x28 }
  - { offsetInCU: 0x10E0E, offset: 0x10E0E, size: 0x8, addend: 0x0, symName: __ZNSt3__19allocatorINS_12basic_stringIcNS_11char_traitsIcEENS0_IcEEEEE8allocateB8ue170006Em, symObjAddr: 0x4F54, symBinAddr: 0x100008508, symSize: 0x8C }
  - { offsetInCU: 0x10E4C, offset: 0x10E4C, size: 0x8, addend: 0x0, symName: __ZNSt3__116allocator_traitsINS_9allocatorINS_12basic_stringIcNS_11char_traitsIcEENS1_IcEEEEEEE8max_sizeB8ue170006IS7_vEEmRKS7_, symObjAddr: 0x4FE0, symBinAddr: 0x100008594, symSize: 0x24 }
  - { offsetInCU: 0x10E7A, offset: 0x10E7A, size: 0x8, addend: 0x0, symName: __ZNKSt3__19allocatorINS_12basic_stringIcNS_11char_traitsIcEENS0_IcEEEEE8max_sizeB8ue170006Ev, symObjAddr: 0x5004, symBinAddr: 0x1000085B8, symSize: 0x18 }
  - { offsetInCU: 0x10EAA, offset: 0x10EAA, size: 0x8, addend: 0x0, symName: __ZNKSt3__123__move_backward_trivialclB8ue170006IPNS_12basic_stringIcNS_11char_traitsIcEENS_9allocatorIcEEEES8_Li0EEENS_4pairIPT_PT0_EESB_SB_SD_, symObjAddr: 0x5198, symBinAddr: 0x10000874C, symSize: 0x48 }
  - { offsetInCU: 0x10F1C, offset: 0x10F1C, size: 0x8, addend: 0x0, symName: __ZNKSt3__16__lessIvvEclB8ue170006ImmEEbRKT_RKT0_, symObjAddr: 0x52FC, symBinAddr: 0x1000088B0, symSize: 0x34 }
  - { offsetInCU: 0x10F70, offset: 0x10F70, size: 0x8, addend: 0x0, symName: __ZNSt3__114__split_bufferIPNS_12basic_stringIcNS_11char_traitsIcEENS_9allocatorIcEEEERNS4_IS7_EEEC2EmmS9_, symObjAddr: 0x5330, symBinAddr: 0x1000088E4, symSize: 0xD4 }
  - { offsetInCU: 0x10FE3, offset: 0x10FE3, size: 0x8, addend: 0x0, symName: __ZNSt3__117__compressed_pairIPPNS_12basic_stringIcNS_11char_traitsIcEENS_9allocatorIcEEEERNS4_IS7_EEEC1B8ue170006IDnSA_EEOT_OT0_, symObjAddr: 0x5404, symBinAddr: 0x1000089B8, symSize: 0x3C }
  - { offsetInCU: 0x1103B, offset: 0x1103B, size: 0x8, addend: 0x0, symName: __ZNSt3__117__compressed_pairIPPNS_12basic_stringIcNS_11char_traitsIcEENS_9allocatorIcEEEERNS4_IS7_EEEC2B8ue170006IDnSA_EEOT_OT0_, symObjAddr: 0x5480, symBinAddr: 0x100008A34, symSize: 0x48 }
  - { offsetInCU: 0x11093, offset: 0x11093, size: 0x8, addend: 0x0, symName: __ZNSt3__122__compressed_pair_elemIRNS_9allocatorIPNS_12basic_stringIcNS_11char_traitsIcEENS1_IcEEEEEELi1ELb0EEC2B8ue170006IS9_vEEOT_, symObjAddr: 0x54C8, symBinAddr: 0x100008A7C, symSize: 0x20 }
  - { offsetInCU: 0x110D5, offset: 0x110D5, size: 0x8, addend: 0x0, symName: __ZNSt3__19allocatorIPNS_12basic_stringIcNS_11char_traitsIcEENS0_IcEEEEE8allocateB8ue170006Em, symObjAddr: 0x54E8, symBinAddr: 0x100008A9C, symSize: 0x84 }
  - { offsetInCU: 0x11113, offset: 0x11113, size: 0x8, addend: 0x0, symName: __ZNSt3__116allocator_traitsINS_9allocatorIPNS_12basic_stringIcNS_11char_traitsIcEENS1_IcEEEEEEE8max_sizeB8ue170006IS8_vEEmRKS8_, symObjAddr: 0x556C, symBinAddr: 0x100008B20, symSize: 0x24 }
  - { offsetInCU: 0x11141, offset: 0x11141, size: 0x8, addend: 0x0, symName: __ZNKSt3__19allocatorIPNS_12basic_stringIcNS_11char_traitsIcEENS0_IcEEEEE8max_sizeB8ue170006Ev, symObjAddr: 0x5590, symBinAddr: 0x100008B44, symSize: 0x14 }
  - { offsetInCU: 0x11167, offset: 0x11167, size: 0x8, addend: 0x0, symName: __ZNSt3__122__allocator_destructorINS_9allocatorINS_12basic_stringIcNS_11char_traitsIcEENS1_IcEEEEEEEC2B8ue170006ERS7_m, symObjAddr: 0x55A4, symBinAddr: 0x100008B58, symSize: 0x2C }
  - { offsetInCU: 0x111AD, offset: 0x111AD, size: 0x8, addend: 0x0, symName: __ZNSt3__110unique_ptrIPNS_12basic_stringIcNS_11char_traitsIcEENS_9allocatorIcEEEENS_22__allocator_destructorINS4_IS6_EEEEEC2B8ue170006ILb1EvEES7_NS_16__dependent_typeINS_27__unique_ptr_deleter_sfinaeISA_EEXT_EE20__good_rval_ref_typeE, symObjAddr: 0x55D0, symBinAddr: 0x100008B84, symSize: 0x5C }
  - { offsetInCU: 0x111FE, offset: 0x111FE, size: 0x8, addend: 0x0, symName: __ZNSt3__117__compressed_pairIPNS_12basic_stringIcNS_11char_traitsIcEENS_9allocatorIcEEEENS_22__allocator_destructorINS4_IS6_EEEEEC1B8ue170006IRS7_SA_EEOT_OT0_, symObjAddr: 0x562C, symBinAddr: 0x100008BE0, symSize: 0x3C }
  - { offsetInCU: 0x11256, offset: 0x11256, size: 0x8, addend: 0x0, symName: __ZNSt3__117__compressed_pairIPNS_12basic_stringIcNS_11char_traitsIcEENS_9allocatorIcEEEENS_22__allocator_destructorINS4_IS6_EEEEEC2B8ue170006IRS7_SA_EEOT_OT0_, symObjAddr: 0x5668, symBinAddr: 0x100008C1C, symSize: 0x48 }
  - { offsetInCU: 0x112AE, offset: 0x112AE, size: 0x8, addend: 0x0, symName: __ZNSt3__122__compressed_pair_elemIPNS_12basic_stringIcNS_11char_traitsIcEENS_9allocatorIcEEEELi0ELb0EEC2B8ue170006IRS7_vEEOT_, symObjAddr: 0x56B0, symBinAddr: 0x100008C64, symSize: 0x24 }
  - { offsetInCU: 0x112F0, offset: 0x112F0, size: 0x8, addend: 0x0, symName: __ZNSt3__122__compressed_pair_elemINS_22__allocator_destructorINS_9allocatorINS_12basic_stringIcNS_11char_traitsIcEENS2_IcEEEEEEEELi1ELb0EEC2B8ue170006IS9_vEEOT_, symObjAddr: 0x56D4, symBinAddr: 0x100008C88, symSize: 0x24 }
  - { offsetInCU: 0x11332, offset: 0x11332, size: 0x8, addend: 0x0, symName: __ZNKSt3__117__compressed_pairIPNS_12basic_stringIcNS_11char_traitsIcEENS_9allocatorIcEEEENS_22__allocator_destructorINS4_IS6_EEEEE5firstB8ue170006Ev, symObjAddr: 0x56F8, symBinAddr: 0x100008CAC, symSize: 0x24 }
  - { offsetInCU: 0x11358, offset: 0x11358, size: 0x8, addend: 0x0, symName: __ZNKSt3__122__compressed_pair_elemIPNS_12basic_stringIcNS_11char_traitsIcEENS_9allocatorIcEEEELi0ELb0EE5__getB8ue170006Ev, symObjAddr: 0x571C, symBinAddr: 0x100008CD0, symSize: 0x14 }
  - { offsetInCU: 0x1137E, offset: 0x1137E, size: 0x8, addend: 0x0, symName: __ZNSt3__117__compressed_pairIPNS_12basic_stringIcNS_11char_traitsIcEENS_9allocatorIcEEEENS_22__allocator_destructorINS4_IS6_EEEEE5firstB8ue170006Ev, symObjAddr: 0x5730, symBinAddr: 0x100008CE4, symSize: 0x24 }
  - { offsetInCU: 0x113A4, offset: 0x113A4, size: 0x8, addend: 0x0, symName: __ZNSt3__122__compressed_pair_elemIPNS_12basic_stringIcNS_11char_traitsIcEENS_9allocatorIcEEEELi0ELb0EE5__getB8ue170006Ev, symObjAddr: 0x5754, symBinAddr: 0x100008D08, symSize: 0x14 }
  - { offsetInCU: 0x113CA, offset: 0x113CA, size: 0x8, addend: 0x0, symName: __ZNSt3__117__compressed_pairIPPNS_12basic_stringIcNS_11char_traitsIcEENS_9allocatorIcEEEENS4_IS7_EEE5firstB8ue170006Ev, symObjAddr: 0x5768, symBinAddr: 0x100008D1C, symSize: 0x24 }
  - { offsetInCU: 0x113F0, offset: 0x113F0, size: 0x8, addend: 0x0, symName: __ZNSt3__122__compressed_pair_elemIPPNS_12basic_stringIcNS_11char_traitsIcEENS_9allocatorIcEEEELi0ELb0EE5__getB8ue170006Ev, symObjAddr: 0x578C, symBinAddr: 0x100008D40, symSize: 0x14 }
  - { offsetInCU: 0x11416, offset: 0x11416, size: 0x8, addend: 0x0, symName: __ZNSt3__117__compressed_pairIPPNS_12basic_stringIcNS_11char_traitsIcEENS_9allocatorIcEEEERNS4_IS7_EEE5firstB8ue170006Ev, symObjAddr: 0x57A0, symBinAddr: 0x100008D54, symSize: 0x24 }
  - { offsetInCU: 0x1143C, offset: 0x1143C, size: 0x8, addend: 0x0, symName: __ZNSt3__110unique_ptrIPNS_12basic_stringIcNS_11char_traitsIcEENS_9allocatorIcEEEENS_22__allocator_destructorINS4_IS6_EEEEED2B8ue170006Ev, symObjAddr: 0x57C4, symBinAddr: 0x100008D78, symSize: 0x30 }
  - { offsetInCU: 0x11466, offset: 0x11466, size: 0x8, addend: 0x0, symName: __ZNSt3__110unique_ptrIPNS_12basic_stringIcNS_11char_traitsIcEENS_9allocatorIcEEEENS_22__allocator_destructorINS4_IS6_EEEEE5resetB8ue170006ES7_, symObjAddr: 0x57F4, symBinAddr: 0x100008DA8, symSize: 0x78 }
  - { offsetInCU: 0x114AA, offset: 0x114AA, size: 0x8, addend: 0x0, symName: __ZNSt3__117__compressed_pairIPNS_12basic_stringIcNS_11char_traitsIcEENS_9allocatorIcEEEENS_22__allocator_destructorINS4_IS6_EEEEE6secondB8ue170006Ev, symObjAddr: 0x586C, symBinAddr: 0x100008E20, symSize: 0x28 }
  - { offsetInCU: 0x114D0, offset: 0x114D0, size: 0x8, addend: 0x0, symName: __ZNSt3__122__allocator_destructorINS_9allocatorINS_12basic_stringIcNS_11char_traitsIcEENS1_IcEEEEEEEclB8ue170006EPS6_, symObjAddr: 0x5894, symBinAddr: 0x100008E48, symSize: 0x34 }
  - { offsetInCU: 0x11504, offset: 0x11504, size: 0x8, addend: 0x0, symName: __ZNSt3__122__compressed_pair_elemINS_22__allocator_destructorINS_9allocatorINS_12basic_stringIcNS_11char_traitsIcEENS2_IcEEEEEEEELi1ELb0EE5__getB8ue170006Ev, symObjAddr: 0x58C8, symBinAddr: 0x100008E7C, symSize: 0x14 }
  - { offsetInCU: 0x1152A, offset: 0x1152A, size: 0x8, addend: 0x0, symName: __ZNSt3__114__split_bufferIPNS_12basic_stringIcNS_11char_traitsIcEENS_9allocatorIcEEEERNS4_IS7_EEED2Ev, symObjAddr: 0x58DC, symBinAddr: 0x100008E90, symSize: 0x80 }
  - { offsetInCU: 0x11556, offset: 0x11556, size: 0x8, addend: 0x0, symName: __ZNSt3__114__split_bufferIPNS_12basic_stringIcNS_11char_traitsIcEENS_9allocatorIcEEEERNS4_IS7_EEE5clearB8ue170006Ev, symObjAddr: 0x595C, symBinAddr: 0x100008F10, symSize: 0x28 }
  - { offsetInCU: 0x1157C, offset: 0x1157C, size: 0x8, addend: 0x0, symName: __ZNKSt3__114__split_bufferIPNS_12basic_stringIcNS_11char_traitsIcEENS_9allocatorIcEEEERNS4_IS7_EEE8capacityB8ue170006Ev, symObjAddr: 0x5984, symBinAddr: 0x100008F38, symSize: 0x40 }
  - { offsetInCU: 0x115A2, offset: 0x115A2, size: 0x8, addend: 0x0, symName: __ZNSt3__114__split_bufferIPNS_12basic_stringIcNS_11char_traitsIcEENS_9allocatorIcEEEERNS4_IS7_EEE17__destruct_at_endB8ue170006EPS7_, symObjAddr: 0x59C4, symBinAddr: 0x100008F78, symSize: 0x2C }
  - { offsetInCU: 0x115D6, offset: 0x115D6, size: 0x8, addend: 0x0, symName: __ZNSt3__114__split_bufferIPNS_12basic_stringIcNS_11char_traitsIcEENS_9allocatorIcEEEERNS4_IS7_EEE17__destruct_at_endB8ue170006EPS7_NS_17integral_constantIbLb0EEE, symObjAddr: 0x59F0, symBinAddr: 0x100008FA4, symSize: 0x94 }
  - { offsetInCU: 0x11616, offset: 0x11616, size: 0x8, addend: 0x0, symName: __ZNKSt3__114__split_bufferIPNS_12basic_stringIcNS_11char_traitsIcEENS_9allocatorIcEEEERNS4_IS7_EEE9__end_capB8ue170006Ev, symObjAddr: 0x5A84, symBinAddr: 0x100009038, symSize: 0x28 }
  - { offsetInCU: 0x1163C, offset: 0x1163C, size: 0x8, addend: 0x0, symName: __ZNKSt3__117__compressed_pairIPPNS_12basic_stringIcNS_11char_traitsIcEENS_9allocatorIcEEEERNS4_IS7_EEE5firstB8ue170006Ev, symObjAddr: 0x5AAC, symBinAddr: 0x100009060, symSize: 0x24 }
  - { offsetInCU: 0x11662, offset: 0x11662, size: 0x8, addend: 0x0, symName: __ZNSt3__19allocatorINS_12basic_stringIcNS_11char_traitsIcEENS0_IcEEEEE9constructB8ue170006IS5_JRKS5_EEEvPT_DpOT0_, symObjAddr: 0x5AD0, symBinAddr: 0x100009084, symSize: 0x30 }
  - { offsetInCU: 0x116B8, offset: 0x116B8, size: 0x8, addend: 0x0, symName: __ZNSt3__13setINS_12basic_stringIcNS_11char_traitsIcEENS_9allocatorIcEEEENS_4lessIS6_EENS4_IS6_EEEC2B8ue170006Ev, symObjAddr: 0x5B00, symBinAddr: 0x1000090B4, symSize: 0x30 }
  - { offsetInCU: 0x116E2, offset: 0x116E2, size: 0x8, addend: 0x0, symName: __ZNSt3__16__treeINS_12basic_stringIcNS_11char_traitsIcEENS_9allocatorIcEEEENS_4lessIS6_EENS4_IS6_EEEC1ERKS8_, symObjAddr: 0x5B30, symBinAddr: 0x1000090E4, symSize: 0x34 }
  - { offsetInCU: 0x1171D, offset: 0x1171D, size: 0x8, addend: 0x0, symName: __ZNSt3__16__treeINS_12basic_stringIcNS_11char_traitsIcEENS_9allocatorIcEEEENS_4lessIS6_EENS4_IS6_EEEC2ERKS8_, symObjAddr: 0x5B64, symBinAddr: 0x100009118, symSize: 0x70 }
  - { offsetInCU: 0x11758, offset: 0x11758, size: 0x8, addend: 0x0, symName: __ZNSt3__117__compressed_pairINS_15__tree_end_nodeIPNS_16__tree_node_baseIPvEEEENS_9allocatorINS_11__tree_nodeINS_12basic_stringIcNS_11char_traitsIcEENS7_IcEEEES3_EEEEEC1B8ue170006ILb1EvEEv, symObjAddr: 0x5BD4, symBinAddr: 0x100009188, symSize: 0x2C }
  - { offsetInCU: 0x1178D, offset: 0x1178D, size: 0x8, addend: 0x0, symName: __ZNSt3__117__compressed_pairImNS_4lessINS_12basic_stringIcNS_11char_traitsIcEENS_9allocatorIcEEEEEEEC1B8ue170006IiRKS8_EEOT_OT0_, symObjAddr: 0x5C00, symBinAddr: 0x1000091B4, symSize: 0x3C }
  - { offsetInCU: 0x117E5, offset: 0x117E5, size: 0x8, addend: 0x0, symName: __ZNSt3__16__treeINS_12basic_stringIcNS_11char_traitsIcEENS_9allocatorIcEEEENS_4lessIS6_EENS4_IS6_EEE10__end_nodeB8ue170006Ev, symObjAddr: 0x5C3C, symBinAddr: 0x1000091F0, symSize: 0x2C }
  - { offsetInCU: 0x1180B, offset: 0x1180B, size: 0x8, addend: 0x0, symName: __ZNSt3__16__treeINS_12basic_stringIcNS_11char_traitsIcEENS_9allocatorIcEEEENS_4lessIS6_EENS4_IS6_EEE12__begin_nodeB8ue170006Ev, symObjAddr: 0x5C68, symBinAddr: 0x10000921C, symSize: 0x14 }
  - { offsetInCU: 0x11831, offset: 0x11831, size: 0x8, addend: 0x0, symName: __ZNSt3__117__compressed_pairINS_15__tree_end_nodeIPNS_16__tree_node_baseIPvEEEENS_9allocatorINS_11__tree_nodeINS_12basic_stringIcNS_11char_traitsIcEENS7_IcEEEES3_EEEEEC2B8ue170006ILb1EvEEv, symObjAddr: 0x5C7C, symBinAddr: 0x100009230, symSize: 0x34 }
  - { offsetInCU: 0x11866, offset: 0x11866, size: 0x8, addend: 0x0, symName: __ZNSt3__122__compressed_pair_elemINS_15__tree_end_nodeIPNS_16__tree_node_baseIPvEEEELi0ELb0EEC2B8ue170006ENS_16__value_init_tagE, symObjAddr: 0x5CB0, symBinAddr: 0x100009264, symSize: 0x2C }
  - { offsetInCU: 0x1189A, offset: 0x1189A, size: 0x8, addend: 0x0, symName: __ZNSt3__122__compressed_pair_elemINS_9allocatorINS_11__tree_nodeINS_12basic_stringIcNS_11char_traitsIcEENS1_IcEEEEPvEEEELi1ELb1EEC2B8ue170006ENS_16__value_init_tagE, symObjAddr: 0x5CDC, symBinAddr: 0x100009290, symSize: 0x2C }
  - { offsetInCU: 0x118CE, offset: 0x118CE, size: 0x8, addend: 0x0, symName: __ZNSt3__115__tree_end_nodeIPNS_16__tree_node_baseIPvEEEC1B8ue170006Ev, symObjAddr: 0x5D08, symBinAddr: 0x1000092BC, symSize: 0x2C }
  - { offsetInCU: 0x118F8, offset: 0x118F8, size: 0x8, addend: 0x0, symName: __ZNSt3__115__tree_end_nodeIPNS_16__tree_node_baseIPvEEEC2B8ue170006Ev, symObjAddr: 0x5D34, symBinAddr: 0x1000092E8, symSize: 0x18 }
  - { offsetInCU: 0x11922, offset: 0x11922, size: 0x8, addend: 0x0, symName: __ZNSt3__19allocatorINS_11__tree_nodeINS_12basic_stringIcNS_11char_traitsIcEENS0_IcEEEEPvEEEC2B8ue170006Ev, symObjAddr: 0x5D4C, symBinAddr: 0x100009300, symSize: 0x2C }
  - { offsetInCU: 0x1194C, offset: 0x1194C, size: 0x8, addend: 0x0, symName: __ZNSt3__116__non_trivial_ifILb1ENS_9allocatorINS_11__tree_nodeINS_12basic_stringIcNS_11char_traitsIcEENS1_IcEEEEPvEEEEEC2B8ue170006Ev, symObjAddr: 0x5D78, symBinAddr: 0x10000932C, symSize: 0x14 }
  - { offsetInCU: 0x11976, offset: 0x11976, size: 0x8, addend: 0x0, symName: __ZNSt3__117__compressed_pairImNS_4lessINS_12basic_stringIcNS_11char_traitsIcEENS_9allocatorIcEEEEEEEC2B8ue170006IiRKS8_EEOT_OT0_, symObjAddr: 0x5D8C, symBinAddr: 0x100009340, symSize: 0x44 }
  - { offsetInCU: 0x119CE, offset: 0x119CE, size: 0x8, addend: 0x0, symName: __ZNSt3__122__compressed_pair_elemINS_4lessINS_12basic_stringIcNS_11char_traitsIcEENS_9allocatorIcEEEEEELi1ELb1EEC2B8ue170006IRKS8_vEEOT_, symObjAddr: 0x5DD0, symBinAddr: 0x100009384, symSize: 0x18 }
  - { offsetInCU: 0x11A10, offset: 0x11A10, size: 0x8, addend: 0x0, symName: __ZNSt3__114pointer_traitsIPNS_15__tree_end_nodeIPNS_16__tree_node_baseIPvEEEEE10pointer_toB8ue170006ERS6_, symObjAddr: 0x5DE8, symBinAddr: 0x10000939C, symSize: 0x14 }
  - { offsetInCU: 0x11A33, offset: 0x11A33, size: 0x8, addend: 0x0, symName: __ZNSt3__117__compressed_pairINS_15__tree_end_nodeIPNS_16__tree_node_baseIPvEEEENS_9allocatorINS_11__tree_nodeINS_12basic_stringIcNS_11char_traitsIcEENS7_IcEEEES3_EEEEE5firstB8ue170006Ev, symObjAddr: 0x5DFC, symBinAddr: 0x1000093B0, symSize: 0x24 }
  - { offsetInCU: 0x11A59, offset: 0x11A59, size: 0x8, addend: 0x0, symName: __ZNSt3__122__compressed_pair_elemINS_15__tree_end_nodeIPNS_16__tree_node_baseIPvEEEELi0ELb0EE5__getB8ue170006Ev, symObjAddr: 0x5E20, symBinAddr: 0x1000093D4, symSize: 0x14 }
  - { offsetInCU: 0x11A7F, offset: 0x11A7F, size: 0x8, addend: 0x0, symName: __ZNSt3__13setINS_12basic_stringIcNS_11char_traitsIcEENS_9allocatorIcEEEENS_4lessIS6_EENS4_IS6_EEED2B8ue170006Ev, symObjAddr: 0x5E34, symBinAddr: 0x1000093E8, symSize: 0x2C }
  - { offsetInCU: 0x11AA9, offset: 0x11AA9, size: 0x8, addend: 0x0, symName: __ZNSt3__16__treeINS_12basic_stringIcNS_11char_traitsIcEENS_9allocatorIcEEEENS_4lessIS6_EENS4_IS6_EEED1Ev, symObjAddr: 0x5E60, symBinAddr: 0x100009414, symSize: 0x2C }
  - { offsetInCU: 0x11AD5, offset: 0x11AD5, size: 0x8, addend: 0x0, symName: __ZNSt3__16__treeINS_12basic_stringIcNS_11char_traitsIcEENS_9allocatorIcEEEENS_4lessIS6_EENS4_IS6_EEED2Ev, symObjAddr: 0x5E8C, symBinAddr: 0x100009440, symSize: 0x38 }
  - { offsetInCU: 0x11B01, offset: 0x11B01, size: 0x8, addend: 0x0, symName: __ZNSt3__16__treeINS_12basic_stringIcNS_11char_traitsIcEENS_9allocatorIcEEEENS_4lessIS6_EENS4_IS6_EEE7destroyEPNS_11__tree_nodeIS6_PvEE, symObjAddr: 0x5EC4, symBinAddr: 0x100009478, symSize: 0xC0 }
  - { offsetInCU: 0x11B55, offset: 0x11B55, size: 0x8, addend: 0x0, symName: __ZNKSt3__16__treeINS_12basic_stringIcNS_11char_traitsIcEENS_9allocatorIcEEEENS_4lessIS6_EENS4_IS6_EEE6__rootB8ue170006Ev, symObjAddr: 0x5F84, symBinAddr: 0x100009538, symSize: 0x28 }
  - { offsetInCU: 0x11B7B, offset: 0x11B7B, size: 0x8, addend: 0x0, symName: __ZNSt3__16__treeINS_12basic_stringIcNS_11char_traitsIcEENS_9allocatorIcEEEENS_4lessIS6_EENS4_IS6_EEE12__node_allocB8ue170006Ev, symObjAddr: 0x5FAC, symBinAddr: 0x100009560, symSize: 0x28 }
  - { offsetInCU: 0x11BA1, offset: 0x11BA1, size: 0x8, addend: 0x0, symName: __ZNSt3__116allocator_traitsINS_9allocatorINS_11__tree_nodeINS_12basic_stringIcNS_11char_traitsIcEENS1_IcEEEEPvEEEEE7destroyB8ue170006IS7_vvEEvRSA_PT_, symObjAddr: 0x5FD4, symBinAddr: 0x100009588, symSize: 0x28 }
  - { offsetInCU: 0x11BDC, offset: 0x11BDC, size: 0x8, addend: 0x0, symName: __ZNSt3__122__tree_key_value_typesINS_12basic_stringIcNS_11char_traitsIcEENS_9allocatorIcEEEEE9__get_ptrB8ue170006ERS6_, symObjAddr: 0x5FFC, symBinAddr: 0x1000095B0, symSize: 0x14 }
  - { offsetInCU: 0x11C00, offset: 0x11C00, size: 0x8, addend: 0x0, symName: __ZNSt3__116allocator_traitsINS_9allocatorINS_11__tree_nodeINS_12basic_stringIcNS_11char_traitsIcEENS1_IcEEEEPvEEEEE10deallocateB8ue170006ERSA_PS9_m, symObjAddr: 0x6010, symBinAddr: 0x1000095C4, symSize: 0x34 }
  - { offsetInCU: 0x11C42, offset: 0x11C42, size: 0x8, addend: 0x0, symName: __ZNSt3__117__compressed_pairINS_15__tree_end_nodeIPNS_16__tree_node_baseIPvEEEENS_9allocatorINS_11__tree_nodeINS_12basic_stringIcNS_11char_traitsIcEENS7_IcEEEES3_EEEEE6secondB8ue170006Ev, symObjAddr: 0x6044, symBinAddr: 0x1000095F8, symSize: 0x24 }
  - { offsetInCU: 0x11C68, offset: 0x11C68, size: 0x8, addend: 0x0, symName: __ZNSt3__122__compressed_pair_elemINS_9allocatorINS_11__tree_nodeINS_12basic_stringIcNS_11char_traitsIcEENS1_IcEEEEPvEEEELi1ELb1EE5__getB8ue170006Ev, symObjAddr: 0x6068, symBinAddr: 0x10000961C, symSize: 0x14 }
  - { offsetInCU: 0x11C8E, offset: 0x11C8E, size: 0x8, addend: 0x0, symName: __ZNSt3__19allocatorINS_11__tree_nodeINS_12basic_stringIcNS_11char_traitsIcEENS0_IcEEEEPvEEE10deallocateB8ue170006EPS8_m, symObjAddr: 0x607C, symBinAddr: 0x100009630, symSize: 0x74 }
  - { offsetInCU: 0x11CD0, offset: 0x11CD0, size: 0x8, addend: 0x0, symName: __ZNKSt3__16__treeINS_12basic_stringIcNS_11char_traitsIcEENS_9allocatorIcEEEENS_4lessIS6_EENS4_IS6_EEE10__end_nodeB8ue170006Ev, symObjAddr: 0x60F0, symBinAddr: 0x1000096A4, symSize: 0x2C }
  - { offsetInCU: 0x11CF6, offset: 0x11CF6, size: 0x8, addend: 0x0, symName: __ZNKSt3__117__compressed_pairINS_15__tree_end_nodeIPNS_16__tree_node_baseIPvEEEENS_9allocatorINS_11__tree_nodeINS_12basic_stringIcNS_11char_traitsIcEENS7_IcEEEES3_EEEEE5firstB8ue170006Ev, symObjAddr: 0x611C, symBinAddr: 0x1000096D0, symSize: 0x24 }
  - { offsetInCU: 0x11D1C, offset: 0x11D1C, size: 0x8, addend: 0x0, symName: __ZNKSt3__122__compressed_pair_elemINS_15__tree_end_nodeIPNS_16__tree_node_baseIPvEEEELi0ELb0EE5__getB8ue170006Ev, symObjAddr: 0x6140, symBinAddr: 0x1000096F4, symSize: 0x14 }
  - { offsetInCU: 0x11D42, offset: 0x11D42, size: 0x8, addend: 0x0, symName: __ZNSt3__15dequeINS_12basic_stringIcNS_11char_traitsIcEENS_9allocatorIcEEEENS4_IS6_EEE5frontEv, symObjAddr: 0x6154, symBinAddr: 0x100009708, symSize: 0x58 }
  - { offsetInCU: 0x11D6A, offset: 0x11D6A, size: 0x8, addend: 0x0, symName: __ZNSt3__15dequeINS_12basic_stringIcNS_11char_traitsIcEENS_9allocatorIcEEEENS4_IS6_EEE9pop_frontEv, symObjAddr: 0x61AC, symBinAddr: 0x100009760, symSize: 0xDC }
  - { offsetInCU: 0x11DBF, offset: 0x11DBF, size: 0x8, addend: 0x0, symName: __ZNKSt3__15dequeINS_12basic_stringIcNS_11char_traitsIcEENS_9allocatorIcEEEENS4_IS6_EEE23__annotate_shrink_frontB8ue170006Emm, symObjAddr: 0x6288, symBinAddr: 0x10000983C, symSize: 0x70 }
  - { offsetInCU: 0x11E03, offset: 0x11E03, size: 0x8, addend: 0x0, symName: __ZNSt3__15dequeINS_12basic_stringIcNS_11char_traitsIcEENS_9allocatorIcEEEENS4_IS6_EEE26__maybe_remove_front_spareB8ue170006Eb, symObjAddr: 0x62F8, symBinAddr: 0x1000098AC, symSize: 0xEC }
  - { offsetInCU: 0x11E38, offset: 0x11E38, size: 0x8, addend: 0x0, symName: __ZNKSt3__15dequeINS_12basic_stringIcNS_11char_traitsIcEENS_9allocatorIcEEEENS4_IS6_EEE20__front_spare_blocksB8ue170006Ev, symObjAddr: 0x63E4, symBinAddr: 0x100009998, symSize: 0x2C }
  - { offsetInCU: 0x11E5E, offset: 0x11E5E, size: 0x8, addend: 0x0, symName: __ZNSt3__16__treeINS_12basic_stringIcNS_11char_traitsIcEENS_9allocatorIcEEEENS_4lessIS6_EENS4_IS6_EEE4findIS6_EENS_15__tree_iteratorIS6_PNS_11__tree_nodeIS6_PvEElEERKT_, symObjAddr: 0x6410, symBinAddr: 0x1000099C4, symSize: 0xF8 }
  - { offsetInCU: 0x11EAD, offset: 0x11EAD, size: 0x8, addend: 0x0, symName: __ZNSt3__121__tree_const_iteratorINS_12basic_stringIcNS_11char_traitsIcEENS_9allocatorIcEEEEPNS_11__tree_nodeIS6_PvEElEC1B8ue170006ENS_15__tree_iteratorIS6_SA_lEE, symObjAddr: 0x6508, symBinAddr: 0x100009ABC, symSize: 0x34 }
  - { offsetInCU: 0x11EE6, offset: 0x11EE6, size: 0x8, addend: 0x0, symName: __ZNSt3__16__treeINS_12basic_stringIcNS_11char_traitsIcEENS_9allocatorIcEEEENS_4lessIS6_EENS4_IS6_EEE13__lower_boundIS6_EENS_15__tree_iteratorIS6_PNS_11__tree_nodeIS6_PvEElEERKT_SG_PNS_15__tree_end_nodeIPNS_16__tree_node_baseISE_EEEE, symObjAddr: 0x653C, symBinAddr: 0x100009AF0, symSize: 0xA4 }
  - { offsetInCU: 0x11F44, offset: 0x11F44, size: 0x8, addend: 0x0, symName: __ZNSt3__16__treeINS_12basic_stringIcNS_11char_traitsIcEENS_9allocatorIcEEEENS_4lessIS6_EENS4_IS6_EEE3endB8ue170006Ev, symObjAddr: 0x6614, symBinAddr: 0x100009BC8, symSize: 0x34 }
  - { offsetInCU: 0x11F6A, offset: 0x11F6A, size: 0x8, addend: 0x0, symName: __ZNSt3__16__treeINS_12basic_stringIcNS_11char_traitsIcEENS_9allocatorIcEEEENS_4lessIS6_EENS4_IS6_EEE10value_compB8ue170006Ev, symObjAddr: 0x6648, symBinAddr: 0x100009BFC, symSize: 0x28 }
  - { offsetInCU: 0x11F90, offset: 0x11F90, size: 0x8, addend: 0x0, symName: __ZNKSt3__14lessINS_12basic_stringIcNS_11char_traitsIcEENS_9allocatorIcEEEEEclB8ue170006ERKS6_S9_, symObjAddr: 0x6670, symBinAddr: 0x100009C24, symSize: 0x34 }
  - { offsetInCU: 0x11FD4, offset: 0x11FD4, size: 0x8, addend: 0x0, symName: __ZNKSt3__115__tree_iteratorINS_12basic_stringIcNS_11char_traitsIcEENS_9allocatorIcEEEEPNS_11__tree_nodeIS6_PvEElEdeB8ue170006Ev, symObjAddr: 0x66A4, symBinAddr: 0x100009C58, symSize: 0x28 }
  - { offsetInCU: 0x11FFA, offset: 0x11FFA, size: 0x8, addend: 0x0, symName: __ZNSt3__115__tree_iteratorINS_12basic_stringIcNS_11char_traitsIcEENS_9allocatorIcEEEEPNS_11__tree_nodeIS6_PvEElEC1B8ue170006EPNS_15__tree_end_nodeIPNS_16__tree_node_baseIS8_EEEE, symObjAddr: 0x66CC, symBinAddr: 0x100009C80, symSize: 0x34 }
  - { offsetInCU: 0x12033, offset: 0x12033, size: 0x8, addend: 0x0, symName: __ZNSt3__115__tree_iteratorINS_12basic_stringIcNS_11char_traitsIcEENS_9allocatorIcEEEEPNS_11__tree_nodeIS6_PvEElEC2B8ue170006EPNS_15__tree_end_nodeIPNS_16__tree_node_baseIS8_EEEE, symObjAddr: 0x6700, symBinAddr: 0x100009CB4, symSize: 0x20 }
  - { offsetInCU: 0x1206C, offset: 0x1206C, size: 0x8, addend: 0x0, symName: __ZNSt3__117__compressed_pairImNS_4lessINS_12basic_stringIcNS_11char_traitsIcEENS_9allocatorIcEEEEEEE6secondB8ue170006Ev, symObjAddr: 0x6750, symBinAddr: 0x100009D04, symSize: 0x24 }
  - { offsetInCU: 0x12092, offset: 0x12092, size: 0x8, addend: 0x0, symName: __ZNSt3__122__compressed_pair_elemINS_4lessINS_12basic_stringIcNS_11char_traitsIcEENS_9allocatorIcEEEEEELi1ELb1EE5__getB8ue170006Ev, symObjAddr: 0x6774, symBinAddr: 0x100009D28, symSize: 0x14 }
  - { offsetInCU: 0x120B8, offset: 0x120B8, size: 0x8, addend: 0x0, symName: __ZNKSt3__112basic_stringIcNS_11char_traitsIcEENS_9allocatorIcEEE7compareB8ue170006ERKS5_, symObjAddr: 0x67C0, symBinAddr: 0x100009D74, symSize: 0x4C }
  - { offsetInCU: 0x120EF, offset: 0x120EF, size: 0x8, addend: 0x0, symName: __ZNKSt3__112basic_stringIcNS_11char_traitsIcEENS_9allocatorIcEEE7compareINS_17basic_string_viewIcS2_EELi0EEEiRKT_, symObjAddr: 0x680C, symBinAddr: 0x100009DC0, symSize: 0x140 }
  - { offsetInCU: 0x12172, offset: 0x12172, size: 0x8, addend: 0x0, symName: __ZNKSt3__112basic_stringIcNS_11char_traitsIcEENS_9allocatorIcEEEcvNS_17basic_string_viewIcS2_EEB8ue170006Ev, symObjAddr: 0x694C, symBinAddr: 0x100009F00, symSize: 0x50 }
  - { offsetInCU: 0x12198, offset: 0x12198, size: 0x8, addend: 0x0, symName: __ZNKSt3__117basic_string_viewIcNS_11char_traitsIcEEE4sizeB8ue170006Ev, symObjAddr: 0x699C, symBinAddr: 0x100009F50, symSize: 0x18 }
  - { offsetInCU: 0x121BE, offset: 0x121BE, size: 0x8, addend: 0x0, symName: __ZNSt3__111char_traitsIcE7compareB8ue170006EPKcS3_m, symObjAddr: 0x69B4, symBinAddr: 0x100009F68, symSize: 0x64 }
  - { offsetInCU: 0x121FD, offset: 0x121FD, size: 0x8, addend: 0x0, symName: __ZNKSt3__112basic_stringIcNS_11char_traitsIcEENS_9allocatorIcEEE4dataB8ue170006Ev, symObjAddr: 0x6A18, symBinAddr: 0x100009FCC, symSize: 0x28 }
  - { offsetInCU: 0x12223, offset: 0x12223, size: 0x8, addend: 0x0, symName: __ZNKSt3__117basic_string_viewIcNS_11char_traitsIcEEE4dataB8ue170006Ev, symObjAddr: 0x6A40, symBinAddr: 0x100009FF4, symSize: 0x18 }
  - { offsetInCU: 0x12249, offset: 0x12249, size: 0x8, addend: 0x0, symName: __ZNKSt3__112basic_stringIcNS_11char_traitsIcEENS_9allocatorIcEEE13__get_pointerB8ue170006Ev, symObjAddr: 0x6A98, symBinAddr: 0x10000A04C, symSize: 0x54 }
  - { offsetInCU: 0x1226F, offset: 0x1226F, size: 0x8, addend: 0x0, symName: __ZNKSt3__112basic_stringIcNS_11char_traitsIcEENS_9allocatorIcEEE18__get_long_pointerB8ue170006Ev, symObjAddr: 0x6AEC, symBinAddr: 0x10000A0A0, symSize: 0x28 }
  - { offsetInCU: 0x12295, offset: 0x12295, size: 0x8, addend: 0x0, symName: __ZNKSt3__112basic_stringIcNS_11char_traitsIcEENS_9allocatorIcEEE19__get_short_pointerB8ue170006Ev, symObjAddr: 0x6B14, symBinAddr: 0x10000A0C8, symSize: 0x28 }
  - { offsetInCU: 0x122BB, offset: 0x122BB, size: 0x8, addend: 0x0, symName: __ZNSt3__114pointer_traitsIPKcE10pointer_toB8ue170006ERS1_, symObjAddr: 0x6B3C, symBinAddr: 0x10000A0F0, symSize: 0x14 }
  - { offsetInCU: 0x122DE, offset: 0x122DE, size: 0x8, addend: 0x0, symName: __ZNSt3__117basic_string_viewIcNS_11char_traitsIcEEEC1B8ue170006EPKcm, symObjAddr: 0x6BA4, symBinAddr: 0x10000A158, symSize: 0x3C }
  - { offsetInCU: 0x12326, offset: 0x12326, size: 0x8, addend: 0x0, symName: __ZNSt3__117basic_string_viewIcNS_11char_traitsIcEEEC2B8ue170006EPKcm, symObjAddr: 0x6BE0, symBinAddr: 0x10000A194, symSize: 0x2C }
  - { offsetInCU: 0x1236E, offset: 0x1236E, size: 0x8, addend: 0x0, symName: __ZNKSt3__115__tree_iteratorINS_12basic_stringIcNS_11char_traitsIcEENS_9allocatorIcEEEEPNS_11__tree_nodeIS6_PvEElE8__get_npB8ue170006Ev, symObjAddr: 0x6C0C, symBinAddr: 0x10000A1C0, symSize: 0x18 }
  - { offsetInCU: 0x12394, offset: 0x12394, size: 0x8, addend: 0x0, symName: __ZNSt3__121__tree_const_iteratorINS_12basic_stringIcNS_11char_traitsIcEENS_9allocatorIcEEEEPNS_11__tree_nodeIS6_PvEElEC2B8ue170006ENS_15__tree_iteratorIS6_SA_lEE, symObjAddr: 0x6C24, symBinAddr: 0x10000A1D8, symSize: 0x20 }
  - { offsetInCU: 0x123CD, offset: 0x123CD, size: 0x8, addend: 0x0, symName: __ZNSt3__16__treeINS_12basic_stringIcNS_11char_traitsIcEENS_9allocatorIcEEEENS_4lessIS6_EENS4_IS6_EEE15__insert_uniqueB8ue170006ERKS6_, symObjAddr: 0x6C74, symBinAddr: 0x10000A228, symSize: 0x50 }
  - { offsetInCU: 0x12402, offset: 0x12402, size: 0x8, addend: 0x0, symName: __ZNSt3__14pairINS_21__tree_const_iteratorINS_12basic_stringIcNS_11char_traitsIcEENS_9allocatorIcEEEEPNS_11__tree_nodeIS7_PvEElEEbEC1B8ue170006INS_15__tree_iteratorIS7_SB_lEEbEERKNS0_IT_T0_EE, symObjAddr: 0x6CC4, symBinAddr: 0x10000A278, symSize: 0x34 }
  - { offsetInCU: 0x1244C, offset: 0x1244C, size: 0x8, addend: 0x0, symName: __ZNSt3__16__treeINS_12basic_stringIcNS_11char_traitsIcEENS_9allocatorIcEEEENS_4lessIS6_EENS4_IS6_EEE25__emplace_unique_key_argsIS6_JRKS6_EEENS_4pairINS_15__tree_iteratorIS6_PNS_11__tree_nodeIS6_PvEElEEbEERKT_DpOT0_, symObjAddr: 0x6CF8, symBinAddr: 0x10000A2AC, symSize: 0xF0 }
  - { offsetInCU: 0x124F8, offset: 0x124F8, size: 0x8, addend: 0x0, symName: __ZNSt3__122__tree_key_value_typesINS_12basic_stringIcNS_11char_traitsIcEENS_9allocatorIcEEEEE9__get_keyB8ue170006ERKS6_, symObjAddr: 0x6DE8, symBinAddr: 0x10000A39C, symSize: 0x14 }
  - { offsetInCU: 0x1251C, offset: 0x1251C, size: 0x8, addend: 0x0, symName: __ZNSt3__16__treeINS_12basic_stringIcNS_11char_traitsIcEENS_9allocatorIcEEEENS_4lessIS6_EENS4_IS6_EEE12__find_equalIS6_EERPNS_16__tree_node_baseIPvEERPNS_15__tree_end_nodeISF_EERKT_, symObjAddr: 0x6DFC, symBinAddr: 0x10000A3B0, symSize: 0x184 }
  - { offsetInCU: 0x12589, offset: 0x12589, size: 0x8, addend: 0x0, symName: __ZNSt3__16__treeINS_12basic_stringIcNS_11char_traitsIcEENS_9allocatorIcEEEENS_4lessIS6_EENS4_IS6_EEE16__construct_nodeIJRKS6_EEENS_10unique_ptrINS_11__tree_nodeIS6_PvEENS_22__tree_node_destructorINS4_ISH_EEEEEEDpOT_, symObjAddr: 0x6F80, symBinAddr: 0x10000A534, symSize: 0x110 }
  - { offsetInCU: 0x125EA, offset: 0x125EA, size: 0x8, addend: 0x0, symName: __ZNSt3__16__treeINS_12basic_stringIcNS_11char_traitsIcEENS_9allocatorIcEEEENS_4lessIS6_EENS4_IS6_EEE16__insert_node_atEPNS_15__tree_end_nodeIPNS_16__tree_node_baseIPvEEEERSF_SF_, symObjAddr: 0x7090, symBinAddr: 0x10000A644, symSize: 0xCC }
  - { offsetInCU: 0x1263F, offset: 0x1263F, size: 0x8, addend: 0x0, symName: __ZNKSt3__110unique_ptrINS_11__tree_nodeINS_12basic_stringIcNS_11char_traitsIcEENS_9allocatorIcEEEEPvEENS_22__tree_node_destructorINS5_IS9_EEEEE3getB8ue170006Ev, symObjAddr: 0x715C, symBinAddr: 0x10000A710, symSize: 0x28 }
  - { offsetInCU: 0x12665, offset: 0x12665, size: 0x8, addend: 0x0, symName: __ZNSt3__110unique_ptrINS_11__tree_nodeINS_12basic_stringIcNS_11char_traitsIcEENS_9allocatorIcEEEEPvEENS_22__tree_node_destructorINS5_IS9_EEEEE7releaseB8ue170006Ev, symObjAddr: 0x7184, symBinAddr: 0x10000A738, symSize: 0x44 }
  - { offsetInCU: 0x1269A, offset: 0x1269A, size: 0x8, addend: 0x0, symName: __ZNSt3__110unique_ptrINS_11__tree_nodeINS_12basic_stringIcNS_11char_traitsIcEENS_9allocatorIcEEEEPvEENS_22__tree_node_destructorINS5_IS9_EEEEED1B8ue170006Ev, symObjAddr: 0x71C8, symBinAddr: 0x10000A77C, symSize: 0x2C }
  - { offsetInCU: 0x126C4, offset: 0x126C4, size: 0x8, addend: 0x0, symName: __ZNSt3__115__tree_iteratorINS_12basic_stringIcNS_11char_traitsIcEENS_9allocatorIcEEEEPNS_11__tree_nodeIS6_PvEElEC1B8ue170006ESA_, symObjAddr: 0x71F4, symBinAddr: 0x10000A7A8, symSize: 0x34 }
  - { offsetInCU: 0x126FD, offset: 0x126FD, size: 0x8, addend: 0x0, symName: __ZNSt3__14pairINS_15__tree_iteratorINS_12basic_stringIcNS_11char_traitsIcEENS_9allocatorIcEEEEPNS_11__tree_nodeIS7_PvEElEEbEC1B8ue170006ERKSC_RKb, symObjAddr: 0x7228, symBinAddr: 0x10000A7DC, symSize: 0x3C }
  - { offsetInCU: 0x12743, offset: 0x12743, size: 0x8, addend: 0x0, symName: __ZNKSt3__16__treeINS_12basic_stringIcNS_11char_traitsIcEENS_9allocatorIcEEEENS_4lessIS6_EENS4_IS6_EEE10__root_ptrB8ue170006Ev, symObjAddr: 0x7264, symBinAddr: 0x10000A818, symSize: 0x24 }
  - { offsetInCU: 0x12769, offset: 0x12769, size: 0x8, addend: 0x0, symName: __ZNSt3__116allocator_traitsINS_9allocatorINS_11__tree_nodeINS_12basic_stringIcNS_11char_traitsIcEENS1_IcEEEEPvEEEEE8allocateB8ue170006ERSA_m, symObjAddr: 0x7288, symBinAddr: 0x10000A83C, symSize: 0x2C }
  - { offsetInCU: 0x1279C, offset: 0x1279C, size: 0x8, addend: 0x0, symName: __ZNSt3__122__tree_node_destructorINS_9allocatorINS_11__tree_nodeINS_12basic_stringIcNS_11char_traitsIcEENS1_IcEEEEPvEEEEEC1B8ue170006ERSA_b, symObjAddr: 0x72B4, symBinAddr: 0x10000A868, symSize: 0x48 }
  - { offsetInCU: 0x127E9, offset: 0x127E9, size: 0x8, addend: 0x0, symName: __ZNSt3__110unique_ptrINS_11__tree_nodeINS_12basic_stringIcNS_11char_traitsIcEENS_9allocatorIcEEEEPvEENS_22__tree_node_destructorINS5_IS9_EEEEEC1B8ue170006ILb1EvEEPS9_NS_16__dependent_typeINS_27__unique_ptr_deleter_sfinaeISC_EEXT_EE20__good_rval_ref_typeE, symObjAddr: 0x72FC, symBinAddr: 0x10000A8B0, symSize: 0x3C }
  - { offsetInCU: 0x1283A, offset: 0x1283A, size: 0x8, addend: 0x0, symName: __ZNSt3__116allocator_traitsINS_9allocatorINS_11__tree_nodeINS_12basic_stringIcNS_11char_traitsIcEENS1_IcEEEEPvEEEEE9constructB8ue170006IS7_JRKS7_EvEEvRSA_PT_DpOT0_, symObjAddr: 0x7338, symBinAddr: 0x10000A8EC, symSize: 0x34 }
  - { offsetInCU: 0x12891, offset: 0x12891, size: 0x8, addend: 0x0, symName: __ZNKSt3__110unique_ptrINS_11__tree_nodeINS_12basic_stringIcNS_11char_traitsIcEENS_9allocatorIcEEEEPvEENS_22__tree_node_destructorINS5_IS9_EEEEEptB8ue170006Ev, symObjAddr: 0x736C, symBinAddr: 0x10000A920, symSize: 0x28 }
  - { offsetInCU: 0x128B7, offset: 0x128B7, size: 0x8, addend: 0x0, symName: __ZNSt3__110unique_ptrINS_11__tree_nodeINS_12basic_stringIcNS_11char_traitsIcEENS_9allocatorIcEEEEPvEENS_22__tree_node_destructorINS5_IS9_EEEEE11get_deleterB8ue170006Ev, symObjAddr: 0x7394, symBinAddr: 0x10000A948, symSize: 0x24 }
  - { offsetInCU: 0x128DD, offset: 0x128DD, size: 0x8, addend: 0x0, symName: __ZNSt3__19allocatorINS_11__tree_nodeINS_12basic_stringIcNS_11char_traitsIcEENS0_IcEEEEPvEEE8allocateB8ue170006Em, symObjAddr: 0x73B8, symBinAddr: 0x10000A96C, symSize: 0x8C }
  - { offsetInCU: 0x1291B, offset: 0x1291B, size: 0x8, addend: 0x0, symName: __ZNSt3__116allocator_traitsINS_9allocatorINS_11__tree_nodeINS_12basic_stringIcNS_11char_traitsIcEENS1_IcEEEEPvEEEEE8max_sizeB8ue170006ISA_vEEmRKSA_, symObjAddr: 0x7444, symBinAddr: 0x10000A9F8, symSize: 0x24 }
  - { offsetInCU: 0x12949, offset: 0x12949, size: 0x8, addend: 0x0, symName: __ZNKSt3__19allocatorINS_11__tree_nodeINS_12basic_stringIcNS_11char_traitsIcEENS0_IcEEEEPvEEE8max_sizeB8ue170006Ev, symObjAddr: 0x7468, symBinAddr: 0x10000AA1C, symSize: 0x20 }
  - { offsetInCU: 0x1296F, offset: 0x1296F, size: 0x8, addend: 0x0, symName: __ZNSt3__122__tree_node_destructorINS_9allocatorINS_11__tree_nodeINS_12basic_stringIcNS_11char_traitsIcEENS1_IcEEEEPvEEEEEC2B8ue170006ERSA_b, symObjAddr: 0x7488, symBinAddr: 0x10000AA3C, symSize: 0x38 }
  - { offsetInCU: 0x129B7, offset: 0x129B7, size: 0x8, addend: 0x0, symName: __ZNSt3__110unique_ptrINS_11__tree_nodeINS_12basic_stringIcNS_11char_traitsIcEENS_9allocatorIcEEEEPvEENS_22__tree_node_destructorINS5_IS9_EEEEEC2B8ue170006ILb1EvEEPS9_NS_16__dependent_typeINS_27__unique_ptr_deleter_sfinaeISC_EEXT_EE20__good_rval_ref_typeE, symObjAddr: 0x74C0, symBinAddr: 0x10000AA74, symSize: 0x5C }
  - { offsetInCU: 0x12A08, offset: 0x12A08, size: 0x8, addend: 0x0, symName: __ZNSt3__117__compressed_pairIPNS_11__tree_nodeINS_12basic_stringIcNS_11char_traitsIcEENS_9allocatorIcEEEEPvEENS_22__tree_node_destructorINS5_IS9_EEEEEC1B8ue170006IRSA_SD_EEOT_OT0_, symObjAddr: 0x751C, symBinAddr: 0x10000AAD0, symSize: 0x3C }
  - { offsetInCU: 0x12A60, offset: 0x12A60, size: 0x8, addend: 0x0, symName: __ZNSt3__117__compressed_pairIPNS_11__tree_nodeINS_12basic_stringIcNS_11char_traitsIcEENS_9allocatorIcEEEEPvEENS_22__tree_node_destructorINS5_IS9_EEEEEC2B8ue170006IRSA_SD_EEOT_OT0_, symObjAddr: 0x7558, symBinAddr: 0x10000AB0C, symSize: 0x48 }
  - { offsetInCU: 0x12AB8, offset: 0x12AB8, size: 0x8, addend: 0x0, symName: __ZNSt3__122__compressed_pair_elemIPNS_11__tree_nodeINS_12basic_stringIcNS_11char_traitsIcEENS_9allocatorIcEEEEPvEELi0ELb0EEC2B8ue170006IRSA_vEEOT_, symObjAddr: 0x75A0, symBinAddr: 0x10000AB54, symSize: 0x24 }
  - { offsetInCU: 0x12AFA, offset: 0x12AFA, size: 0x8, addend: 0x0, symName: __ZNSt3__122__compressed_pair_elemINS_22__tree_node_destructorINS_9allocatorINS_11__tree_nodeINS_12basic_stringIcNS_11char_traitsIcEENS2_IcEEEEPvEEEEEELi1ELb0EEC2B8ue170006ISC_vEEOT_, symObjAddr: 0x75C4, symBinAddr: 0x10000AB78, symSize: 0x24 }
  - { offsetInCU: 0x12B3C, offset: 0x12B3C, size: 0x8, addend: 0x0, symName: __ZNSt3__19allocatorINS_11__tree_nodeINS_12basic_stringIcNS_11char_traitsIcEENS0_IcEEEEPvEEE9constructB8ue170006IS6_JRKS6_EEEvPT_DpOT0_, symObjAddr: 0x75E8, symBinAddr: 0x10000AB9C, symSize: 0x30 }
  - { offsetInCU: 0x12B92, offset: 0x12B92, size: 0x8, addend: 0x0, symName: __ZNKSt3__117__compressed_pairIPNS_11__tree_nodeINS_12basic_stringIcNS_11char_traitsIcEENS_9allocatorIcEEEEPvEENS_22__tree_node_destructorINS5_IS9_EEEEE5firstB8ue170006Ev, symObjAddr: 0x7618, symBinAddr: 0x10000ABCC, symSize: 0x24 }
  - { offsetInCU: 0x12BB8, offset: 0x12BB8, size: 0x8, addend: 0x0, symName: __ZNKSt3__122__compressed_pair_elemIPNS_11__tree_nodeINS_12basic_stringIcNS_11char_traitsIcEENS_9allocatorIcEEEEPvEELi0ELb0EE5__getB8ue170006Ev, symObjAddr: 0x763C, symBinAddr: 0x10000ABF0, symSize: 0x14 }
  - { offsetInCU: 0x12BDE, offset: 0x12BDE, size: 0x8, addend: 0x0, symName: __ZNSt3__117__compressed_pairIPNS_11__tree_nodeINS_12basic_stringIcNS_11char_traitsIcEENS_9allocatorIcEEEEPvEENS_22__tree_node_destructorINS5_IS9_EEEEE6secondB8ue170006Ev, symObjAddr: 0x7650, symBinAddr: 0x10000AC04, symSize: 0x28 }
  - { offsetInCU: 0x12C04, offset: 0x12C04, size: 0x8, addend: 0x0, symName: __ZNSt3__122__compressed_pair_elemINS_22__tree_node_destructorINS_9allocatorINS_11__tree_nodeINS_12basic_stringIcNS_11char_traitsIcEENS2_IcEEEEPvEEEEEELi1ELb0EE5__getB8ue170006Ev, symObjAddr: 0x7678, symBinAddr: 0x10000AC2C, symSize: 0x14 }
  - { offsetInCU: 0x12C2A, offset: 0x12C2A, size: 0x8, addend: 0x0, symName: __ZNSt3__16__treeINS_12basic_stringIcNS_11char_traitsIcEENS_9allocatorIcEEEENS_4lessIS6_EENS4_IS6_EEE4sizeB8ue170006Ev, symObjAddr: 0x79CC, symBinAddr: 0x10000AF80, symSize: 0x28 }
  - { offsetInCU: 0x12C50, offset: 0x12C50, size: 0x8, addend: 0x0, symName: __ZNKSt3__116__tree_node_baseIPvE15__parent_unsafeB8ue170006Ev, symObjAddr: 0x79F4, symBinAddr: 0x10000AFA8, symSize: 0x18 }
  - { offsetInCU: 0x12C76, offset: 0x12C76, size: 0x8, addend: 0x0, symName: __ZNSt3__116__tree_node_baseIPvE12__set_parentB8ue170006EPS2_, symObjAddr: 0x7BF0, symBinAddr: 0x10000B1A4, symSize: 0x20 }
  - { offsetInCU: 0x12CAB, offset: 0x12CAB, size: 0x8, addend: 0x0, symName: __ZNSt3__117__compressed_pairImNS_4lessINS_12basic_stringIcNS_11char_traitsIcEENS_9allocatorIcEEEEEEE5firstB8ue170006Ev, symObjAddr: 0x7C10, symBinAddr: 0x10000B1C4, symSize: 0x24 }
  - { offsetInCU: 0x12CD1, offset: 0x12CD1, size: 0x8, addend: 0x0, symName: __ZNSt3__117__compressed_pairIPNS_11__tree_nodeINS_12basic_stringIcNS_11char_traitsIcEENS_9allocatorIcEEEEPvEENS_22__tree_node_destructorINS5_IS9_EEEEE5firstB8ue170006Ev, symObjAddr: 0x7C34, symBinAddr: 0x10000B1E8, symSize: 0x24 }
  - { offsetInCU: 0x12CF7, offset: 0x12CF7, size: 0x8, addend: 0x0, symName: __ZNSt3__122__compressed_pair_elemIPNS_11__tree_nodeINS_12basic_stringIcNS_11char_traitsIcEENS_9allocatorIcEEEEPvEELi0ELb0EE5__getB8ue170006Ev, symObjAddr: 0x7C58, symBinAddr: 0x10000B20C, symSize: 0x14 }
  - { offsetInCU: 0x12D1D, offset: 0x12D1D, size: 0x8, addend: 0x0, symName: __ZNSt3__110unique_ptrINS_11__tree_nodeINS_12basic_stringIcNS_11char_traitsIcEENS_9allocatorIcEEEEPvEENS_22__tree_node_destructorINS5_IS9_EEEEED2B8ue170006Ev, symObjAddr: 0x7C6C, symBinAddr: 0x10000B220, symSize: 0x30 }
  - { offsetInCU: 0x12D47, offset: 0x12D47, size: 0x8, addend: 0x0, symName: __ZNSt3__110unique_ptrINS_11__tree_nodeINS_12basic_stringIcNS_11char_traitsIcEENS_9allocatorIcEEEEPvEENS_22__tree_node_destructorINS5_IS9_EEEEE5resetB8ue170006EPS9_, symObjAddr: 0x7C9C, symBinAddr: 0x10000B250, symSize: 0x78 }
  - { offsetInCU: 0x12D8B, offset: 0x12D8B, size: 0x8, addend: 0x0, symName: __ZNSt3__122__tree_node_destructorINS_9allocatorINS_11__tree_nodeINS_12basic_stringIcNS_11char_traitsIcEENS1_IcEEEEPvEEEEEclB8ue170006EPS9_, symObjAddr: 0x7D14, symBinAddr: 0x10000B2C8, symSize: 0xA4 }
  - { offsetInCU: 0x12DC0, offset: 0x12DC0, size: 0x8, addend: 0x0, symName: __ZNSt3__115__tree_iteratorINS_12basic_stringIcNS_11char_traitsIcEENS_9allocatorIcEEEEPNS_11__tree_nodeIS6_PvEElEC2B8ue170006ESA_, symObjAddr: 0x7DB8, symBinAddr: 0x10000B36C, symSize: 0x20 }
  - { offsetInCU: 0x12DF9, offset: 0x12DF9, size: 0x8, addend: 0x0, symName: __ZNSt3__14pairINS_15__tree_iteratorINS_12basic_stringIcNS_11char_traitsIcEENS_9allocatorIcEEEEPNS_11__tree_nodeIS7_PvEElEEbEC2B8ue170006ERKSC_RKb, symObjAddr: 0x7DD8, symBinAddr: 0x10000B38C, symSize: 0x38 }
  - { offsetInCU: 0x12E3F, offset: 0x12E3F, size: 0x8, addend: 0x0, symName: __ZNSt3__14pairINS_21__tree_const_iteratorINS_12basic_stringIcNS_11char_traitsIcEENS_9allocatorIcEEEEPNS_11__tree_nodeIS7_PvEElEEbEC2B8ue170006INS_15__tree_iteratorIS7_SB_lEEbEERKNS0_IT_T0_EE, symObjAddr: 0x7E10, symBinAddr: 0x10000B3C4, symSize: 0x50 }
  - { offsetInCU: 0x12E89, offset: 0x12E89, size: 0x8, addend: 0x0, symName: __ZNKSt3__112basic_stringIcNS_11char_traitsIcEENS_9allocatorIcEEE15__get_long_sizeB8ue170006Ev, symObjAddr: 0x7E60, symBinAddr: 0x10000B414, symSize: 0x28 }
  - { offsetInCU: 0x12EAF, offset: 0x12EAF, size: 0x8, addend: 0x0, symName: __ZNKSt3__112basic_stringIcNS_11char_traitsIcEENS_9allocatorIcEEE16__get_short_sizeB8ue170006Ev, symObjAddr: 0x7E88, symBinAddr: 0x10000B43C, symSize: 0x34 }
  - { offsetInCU: 0x12ED5, offset: 0x12ED5, size: 0x8, addend: 0x0, symName: __ZNSt3__112basic_stringIcNS_11char_traitsIcEENS_9allocatorIcEEE13__get_pointerB8ue170006Ev, symObjAddr: 0x7EBC, symBinAddr: 0x10000B470, symSize: 0x54 }
  - { offsetInCU: 0x12F00, offset: 0x12F00, size: 0x8, addend: 0x0, symName: __ZNKSt3__16__lessIvvEclB8ue170006IiiEEbRKT_RKT0_, symObjAddr: 0x7F64, symBinAddr: 0x10000B518, symSize: 0x34 }
...
